   1               		.file	"ff.c"
   2               	__SREG__ = 0x3f
   3               	__SP_H__ = 0x3e
   4               	__SP_L__ = 0x3d
   5               	__CCP__  = 0x34
   6               	__tmp_reg__ = 0
   7               	__zero_reg__ = 1
  15               	.Ltext0:
  16               		.section	.text.mem_cpy,"ax",@progbits
  18               	mem_cpy:
  19               	.LFB133:
  20               	.LSM0:
  21               	.LVL0:
  22 0000 0F93      		push r16
  23 0002 1F93      		push r17
  24 0004 CF93      		push r28
  25 0006 DF93      		push r29
  26               	/* prologue: function */
  27               	/* frame size = 0 */
  28 0008 8C01      		movw r16,r24
  29 000a EB01      		movw r28,r22
  30 000c BA01      		movw r22,r20
  31               	.LVL1:
  32               	.LSM1:
  33 000e 20E0      		ldi r18,lo8(0)
  34 0010 30E0      		ldi r19,hi8(0)
  35 0012 00C0      		rjmp .L2
  36               	.LVL2:
  37               	.L3:
  38               	.LSM2:
  39 0014 F801      		movw r30,r16
  40 0016 E20F      		add r30,r18
  41 0018 F31F      		adc r31,r19
  42 001a DE01      		movw r26,r28
  43 001c A20F      		add r26,r18
  44 001e B31F      		adc r27,r19
  45 0020 8D91      		ld r24,X+
  46 0022 9C91      		ld r25,X
  47 0024 9183      		std Z+1,r25
  48 0026 8083      		st Z,r24
  49 0028 4250      		subi r20,lo8(-(-2))
  50 002a 5040      		sbci r21,hi8(-(-2))
  51 002c 2E5F      		subi r18,lo8(-(2))
  52 002e 3F4F      		sbci r19,hi8(-(2))
  53               	.LVL3:
  54               	.L2:
  55               	.LSM3:
  56 0030 4230      		cpi r20,2
  57 0032 5105      		cpc r21,__zero_reg__
  58 0034 00F4      		brsh .L3
  59               	.LSM4:
  60 0036 CB01      		movw r24,r22
  61 0038 8E7F      		andi r24,lo8(-2)
  62 003a AB01      		movw r20,r22
  63 003c 481B      		sub r20,r24
  64 003e 590B      		sbc r21,r25
  65 0040 DE01      		movw r26,r28
  66               	.LVL4:
  67 0042 A80F      		add r26,r24
  68 0044 B91F      		adc r27,r25
  69 0046 F801      		movw r30,r16
  70               	.LVL5:
  71 0048 E80F      		add r30,r24
  72 004a F91F      		adc r31,r25
  73 004c 00C0      		rjmp .L4
  74               	.L5:
  75               	.LSM5:
  76 004e 8D91      		ld r24,X+
  77 0050 8193      		st Z+,r24
  78               	.L4:
  79               	.LSM6:
  80 0052 4150      		subi r20,lo8(-(-1))
  81 0054 5040      		sbci r21,hi8(-(-1))
  82 0056 8FEF      		ldi r24,hi8(-1)
  83 0058 4F3F      		cpi r20,lo8(-1)
  84 005a 5807      		cpc r21,r24
  85 005c 01F4      		brne .L5
  86               	/* epilogue start */
  87               	.LSM7:
  88 005e DF91      		pop r29
  89 0060 CF91      		pop r28
  90               	.LVL6:
  91 0062 1F91      		pop r17
  92 0064 0F91      		pop r16
  93               	.LVL7:
  94 0066 0895      		ret
  95               	.LFE133:
  97               		.section	.text.mem_set,"ax",@progbits
  99               	mem_set:
 100               	.LFB134:
 101               	.LSM8:
 102               	.LVL8:
 103               	/* prologue: function */
 104               	/* frame size = 0 */
 105               	.LSM9:
 106 0000 FC01      		movw r30,r24
 107               	.LVL9:
 108 0002 00C0      		rjmp .L8
 109               	.LVL10:
 110               	.L9:
 111               	.LSM10:
 112 0004 6193      		st Z+,r22
 113               	.LVL11:
 114               	.L8:
 115               	.LSM11:
 116 0006 4150      		subi r20,lo8(-(-1))
 117 0008 5040      		sbci r21,hi8(-(-1))
 118 000a 8FEF      		ldi r24,hi8(-1)
 119 000c 4F3F      		cpi r20,lo8(-1)
 120 000e 5807      		cpc r21,r24
 121               	.LVL12:
 122 0010 01F4      		brne .L9
 123               	/* epilogue start */
 124               	.LSM12:
 125 0012 0895      		ret
 126               	.LFE134:
 128               		.section	.text.clust2sect,"ax",@progbits
 129               	.global	clust2sect
 131               	clust2sect:
 132               	.LFB143:
 133               	.LSM13:
 134               	.LVL13:
 135 0000 EF92      		push r14
 136 0002 FF92      		push r15
 137 0004 0F93      		push r16
 138 0006 1F93      		push r17
 139 0008 CF93      		push r28
 140 000a DF93      		push r29
 141               	/* prologue: function */
 142               	/* frame size = 0 */
 143 000c EC01      		movw r28,r24
 144 000e 7A01      		movw r14,r20
 145 0010 8B01      		movw r16,r22
 146               	.LSM14:
 147 0012 8EEF      		ldi r24,lo8(-2)
 148 0014 9FEF      		ldi r25,hi8(-2)
 149 0016 AFEF      		ldi r26,hlo8(-2)
 150 0018 BFEF      		ldi r27,hhi8(-2)
 151               	.LVL14:
 152 001a E80E      		add r14,r24
 153 001c F91E      		adc r15,r25
 154 001e 0A1F      		adc r16,r26
 155 0020 1B1F      		adc r17,r27
 156               	.LVL15:
 157               	.LSM15:
 158 0022 8E89      		ldd r24,Y+22
 159 0024 9F89      		ldd r25,Y+23
 160 0026 A88D      		ldd r26,Y+24
 161 0028 B98D      		ldd r27,Y+25
 162 002a 0297      		sbiw r24,2
 163 002c A109      		sbc r26,__zero_reg__
 164 002e B109      		sbc r27,__zero_reg__
 165 0030 E816      		cp r14,r24
 166 0032 F906      		cpc r15,r25
 167 0034 0A07      		cpc r16,r26
 168 0036 1B07      		cpc r17,r27
 169 0038 00F0      		brlo .L12
 170 003a 20E0      		ldi r18,lo8(0)
 171 003c 30E0      		ldi r19,hi8(0)
 172 003e 40E0      		ldi r20,hlo8(0)
 173 0040 50E0      		ldi r21,hhi8(0)
 174 0042 00C0      		rjmp .L13
 175               	.L12:
 176               	.LSM16:
 177 0044 2A81      		ldd r18,Y+2
 178 0046 30E0      		ldi r19,lo8(0)
 179 0048 40E0      		ldi r20,lo8(0)
 180 004a 50E0      		ldi r21,hi8(0)
 181 004c C801      		movw r24,r16
 182 004e B701      		movw r22,r14
 183 0050 0E94 0000 		call __mulsi3
 184 0054 9B01      		movw r18,r22
 185 0056 AC01      		movw r20,r24
 186 0058 8EA1      		ldd r24,Y+38
 187 005a 9FA1      		ldd r25,Y+39
 188 005c A8A5      		ldd r26,Y+40
 189 005e B9A5      		ldd r27,Y+41
 190 0060 280F      		add r18,r24
 191 0062 391F      		adc r19,r25
 192 0064 4A1F      		adc r20,r26
 193 0066 5B1F      		adc r21,r27
 194               	.L13:
 195               	.LSM17:
 196 0068 B901      		movw r22,r18
 197 006a CA01      		movw r24,r20
 198               	/* epilogue start */
 199 006c DF91      		pop r29
 200 006e CF91      		pop r28
 201               	.LVL16:
 202 0070 1F91      		pop r17
 203 0072 0F91      		pop r16
 204 0074 FF90      		pop r15
 205 0076 EF90      		pop r14
 206               	.LVL17:
 207 0078 0895      		ret
 208               	.LFE143:
 210               		.section	.text.get_fileinfo,"ax",@progbits
 212               	get_fileinfo:
 213               	.LFB151:
 214               	.LSM18:
 215               	.LVL18:
 216 0000 CF93      		push r28
 217 0002 DF93      		push r29
 218               	/* prologue: function */
 219               	/* frame size = 0 */
 220 0004 FC01      		movw r30,r24
 221 0006 AB01      		movw r20,r22
 222               	.LSM19:
 223 0008 EB01      		movw r28,r22
 224               	.LVL19:
 225 000a 2996      		adiw r28,9
 226               	.LSM20:
 227 000c 8685      		ldd r24,Z+14
 228 000e 9785      		ldd r25,Z+15
 229 0010 A089      		ldd r26,Z+16
 230 0012 B189      		ldd r27,Z+17
 231               	.LVL20:
 232 0014 0097      		sbiw r24,0
 233 0016 A105      		cpc r26,__zero_reg__
 234 0018 B105      		cpc r27,__zero_reg__
 235 001a 01F4      		brne .+2
 236 001c 00C0      		rjmp .L16
 237               	.LSM21:
 238 001e 2289      		ldd r18,Z+18
 239 0020 3389      		ldd r19,Z+19
 240               	.LVL21:
 241 0022 80E0      		ldi r24,lo8(0)
 242 0024 90E0      		ldi r25,hi8(0)
 243               	.LVL22:
 244               	.L19:
 245               	.LSM22:
 246 0026 F901      		movw r30,r18
 247               	.LVL23:
 248 0028 E80F      		add r30,r24
 249 002a F91F      		adc r31,r25
 250 002c E081      		ld r30,Z
 251               	.LVL24:
 252               	.LSM23:
 253 002e E032      		cpi r30,lo8(32)
 254 0030 01F0      		breq .L17
 255               	.LSM24:
 256 0032 E530      		cpi r30,lo8(5)
 257 0034 01F4      		brne .L18
 258 0036 E5EE      		ldi r30,lo8(-27)
 259               	.L18:
 260               	.LSM25:
 261 0038 E993      		st Y+,r30
 262               	.LSM26:
 263 003a 0196      		adiw r24,1
 264 003c 8830      		cpi r24,8
 265 003e 9105      		cpc r25,__zero_reg__
 266 0040 01F4      		brne .L19
 267               	.L17:
 268               	.LSM27:
 269 0042 D901      		movw r26,r18
 270 0044 1896      		adiw r26,8
 271 0046 8C91      		ld r24,X
 272               	.LVL25:
 273 0048 8032      		cpi r24,lo8(32)
 274 004a 01F4      		brne .L20
 275 004c FE01      		movw r30,r28
 276               	.LVL26:
 277 004e 00C0      		rjmp .L21
 278               	.LVL27:
 279               	.L20:
 280               	.LSM28:
 281 0050 FE01      		movw r30,r28
 282               	.LVL28:
 283 0052 8EE2      		ldi r24,lo8(46)
 284 0054 8193      		st Z+,r24
 285 0056 D901      		movw r26,r18
 286               	.LSM29:
 287 0058 BE01      		movw r22,r28
 288               	.LVL29:
 289 005a 6C5F      		subi r22,lo8(-(4))
 290 005c 7F4F      		sbci r23,hi8(-(4))
 291               	.LVL30:
 292               	.L22:
 293               	.LSM30:
 294 005e 1896      		adiw r26,8
 295 0060 8C91      		ld r24,X
 296 0062 1897      		sbiw r26,8
 297               	.LSM31:
 298 0064 8032      		cpi r24,lo8(32)
 299 0066 01F0      		breq .L21
 300               	.LVL31:
 301               	.LSM32:
 302 0068 8193      		st Z+,r24
 303 006a 1196      		adiw r26,1
 304               	.LSM33:
 305 006c E617      		cp r30,r22
 306 006e F707      		cpc r31,r23
 307 0070 01F4      		brne .L22
 308               	.LVL32:
 309               	.L21:
 310               	.LSM34:
 311 0072 E901      		movw r28,r18
 312 0074 8B85      		ldd r24,Y+11
 313               	.LVL33:
 314 0076 DA01      		movw r26,r20
 315 0078 1896      		adiw r26,8
 316 007a 8C93      		st X,r24
 317               	.LSM35:
 318 007c 8C8D      		ldd r24,Y+28
 319 007e 9D8D      		ldd r25,Y+29
 320 0080 AE8D      		ldd r26,Y+30
 321 0082 BF8D      		ldd r27,Y+31
 322 0084 EA01      		movw r28,r20
 323 0086 8883      		st Y,r24
 324 0088 9983      		std Y+1,r25
 325 008a AA83      		std Y+2,r26
 326 008c BB83      		std Y+3,r27
 327               	.LSM36:
 328 008e D901      		movw r26,r18
 329 0090 5896      		adiw r26,24
 330 0092 8D91      		ld r24,X+
 331 0094 9C91      		ld r25,X
 332 0096 5997      		sbiw r26,24+1
 333 0098 9D83      		std Y+5,r25
 334 009a 8C83      		std Y+4,r24
 335               	.LSM37:
 336 009c 5696      		adiw r26,22
 337 009e 8D91      		ld r24,X+
 338 00a0 9C91      		ld r25,X
 339 00a2 5797      		sbiw r26,22+1
 340 00a4 9F83      		std Y+7,r25
 341 00a6 8E83      		std Y+6,r24
 342 00a8 EF01      		movw r28,r30
 343               	.LVL34:
 344               	.L16:
 345               	.LSM38:
 346 00aa 1882      		st Y,__zero_reg__
 347               	/* epilogue start */
 348               	.LSM39:
 349 00ac DF91      		pop r29
 350 00ae CF91      		pop r28
 351               	.LVL35:
 352 00b0 0895      		ret
 353               	.LFE151:
 355               		.section	.text.f_mount,"ax",@progbits
 356               	.global	f_mount
 358               	f_mount:
 359               	.LFB156:
 360               	.LSM40:
 361               	.LVL36:
 362               	/* prologue: function */
 363               	/* frame size = 0 */
 364 0000 DB01      		movw r26,r22
 365               	.LSM41:
 366 0002 8823      		tst r24
 367 0004 01F0      		breq .L27
 368               	.LVL37:
 369 0006 8BE0      		ldi r24,lo8(11)
 370               	.LVL38:
 371 0008 0895      		ret
 372               	.LVL39:
 373               	.L27:
 374               	.LSM42:
 375 000a E091 0000 		lds r30,FatFs
 376 000e F091 0000 		lds r31,(FatFs)+1
 377               	.LVL40:
 378               	.LSM43:
 379 0012 3097      		sbiw r30,0
 380 0014 01F0      		breq .L29
 381               	.LSM44:
 382 0016 1082      		st Z,__zero_reg__
 383               	.L29:
 384               	.LSM45:
 385 0018 1097      		sbiw r26,0
 386 001a 01F0      		breq .L30
 387               	.LSM46:
 388 001c 1C92      		st X,__zero_reg__
 389               	.L30:
 390               	.LSM47:
 391 001e B093 0000 		sts (FatFs)+1,r27
 392 0022 A093 0000 		sts FatFs,r26
 393 0026 80E0      		ldi r24,lo8(0)
 394               	.LVL41:
 395               	.LSM48:
 396 0028 0895      		ret
 397               	.LFE156:
 399               		.section	.text.validate,"ax",@progbits
 401               	validate:
 402               	.LFB155:
 403               	.LSM49:
 404               	.LVL42:
 405               	/* prologue: function */
 406               	/* frame size = 0 */
 407 0000 FC01      		movw r30,r24
 408               	.LSM50:
 409 0002 0097      		sbiw r24,0
 410 0004 01F0      		breq .L33
 411 0006 8081      		ld r24,Z
 412               	.LVL43:
 413 0008 8823      		tst r24
 414 000a 01F0      		breq .L33
 415 000c 8681      		ldd r24,Z+6
 416 000e 9781      		ldd r25,Z+7
 417 0010 8617      		cp r24,r22
 418 0012 9707      		cpc r25,r23
 419 0014 01F4      		brne .L33
 420               	.LSM51:
 421 0016 8181      		ldd r24,Z+1
 422 0018 0E94 0000 		call disk_status
 423               	.LVL44:
 424 001c 80FD      		sbrc r24,0
 425 001e 00C0      		rjmp .L34
 426 0020 80E0      		ldi r24,lo8(0)
 427 0022 0895      		ret
 428               	.L34:
 429 0024 83E0      		ldi r24,lo8(3)
 430 0026 0895      		ret
 431               	.LVL45:
 432               	.L33:
 433 0028 89E0      		ldi r24,lo8(9)
 434               	.LSM52:
 435 002a 0895      		ret
 436               	.LFE155:
 438               		.section	.text.check_fs,"ax",@progbits
 440               	check_fs:
 441               	.LFB153:
 442               	.LSM53:
 443               	.LVL46:
 444 0000 0F93      		push r16
 445 0002 CF93      		push r28
 446 0004 DF93      		push r29
 447               	/* prologue: function */
 448               	/* frame size = 0 */
 449 0006 EC01      		movw r28,r24
 450 0008 9A01      		movw r18,r20
 451 000a AB01      		movw r20,r22
 452               	.LSM54:
 453 000c BC01      		movw r22,r24
 454 000e 625D      		subi r22,lo8(-(46))
 455 0010 7F4F      		sbci r23,hi8(-(46))
 456 0012 8981      		ldd r24,Y+1
 457               	.LVL47:
 458 0014 01E0      		ldi r16,lo8(1)
 459 0016 0E94 0000 		call disk_read
 460               	.LVL48:
 461 001a 8823      		tst r24
 462 001c 01F0      		breq .L38
 463 001e 23E0      		ldi r18,lo8(3)
 464 0020 00C0      		rjmp .L39
 465               	.L38:
 466               	.LSM55:
 467 0022 C45D      		subi r28,lo8(-(556))
 468 0024 DD4F      		sbci r29,hi8(-(556))
 469 0026 8881      		ld r24,Y
 470 0028 9981      		ldd r25,Y+1
 471 002a CC52      		subi r28,lo8(-(-556))
 472 002c D240      		sbci r29,hi8(-(-556))
 473 002e 8555      		subi r24,lo8(-21931)
 474 0030 9A4A      		sbci r25,hi8(-21931)
 475 0032 01F0      		breq .L40
 476 0034 22E0      		ldi r18,lo8(2)
 477 0036 00C0      		rjmp .L39
 478               	.L40:
 479               	.LSM56:
 480 0038 CC59      		subi r28,lo8(-(100))
 481 003a DF4F      		sbci r29,hi8(-(100))
 482 003c 8881      		ld r24,Y
 483 003e 9981      		ldd r25,Y+1
 484 0040 AA81      		ldd r26,Y+2
 485 0042 BB81      		ldd r27,Y+3
 486 0044 C456      		subi r28,lo8(-(-100))
 487 0046 D040      		sbci r29,hi8(-(-100))
 488 0048 B070      		andi r27,hhi8(16777215)
 489 004a 8654      		subi r24,lo8(5521734)
 490 004c 9144      		sbci r25,hi8(5521734)
 491 004e A445      		sbci r26,hlo8(5521734)
 492 0050 B040      		sbci r27,hhi8(5521734)
 493 0052 01F4      		brne .L41
 494 0054 20E0      		ldi r18,lo8(0)
 495 0056 00C0      		rjmp .L39
 496               	.L41:
 497 0058 20E0      		ldi r18,lo8(0)
 498 005a C058      		subi r28,lo8(-(128))
 499 005c DF4F      		sbci r29,hi8(-(128))
 500 005e 8881      		ld r24,Y
 501 0060 9981      		ldd r25,Y+1
 502 0062 AA81      		ldd r26,Y+2
 503 0064 BB81      		ldd r27,Y+3
 504 0066 B070      		andi r27,hhi8(16777215)
 505 0068 8654      		subi r24,lo8(5521734)
 506 006a 9144      		sbci r25,hi8(5521734)
 507 006c A445      		sbci r26,hlo8(5521734)
 508 006e B040      		sbci r27,hhi8(5521734)
 509 0070 01F0      		breq .L39
 510 0072 21E0      		ldi r18,lo8(1)
 511               	.L39:
 512               	.LSM57:
 513 0074 822F      		mov r24,r18
 514               	/* epilogue start */
 515 0076 DF91      		pop r29
 516 0078 CF91      		pop r28
 517               	.LVL49:
 518 007a 0F91      		pop r16
 519 007c 0895      		ret
 520               	.LFE153:
 522               		.section	.text.chk_mounted,"ax",@progbits
 524               	chk_mounted:
 525               	.LFB154:
 526               	.LSM58:
 527               	.LVL50:
 528 0000 2F92      		push r2
 529 0002 3F92      		push r3
 530 0004 4F92      		push r4
 531 0006 5F92      		push r5
 532 0008 6F92      		push r6
 533 000a 7F92      		push r7
 534 000c 8F92      		push r8
 535 000e 9F92      		push r9
 536 0010 AF92      		push r10
 537 0012 BF92      		push r11
 538 0014 CF92      		push r12
 539 0016 DF92      		push r13
 540 0018 EF92      		push r14
 541 001a FF92      		push r15
 542 001c 0F93      		push r16
 543 001e 1F93      		push r17
 544 0020 DF93      		push r29
 545 0022 CF93      		push r28
 546 0024 CDB7      		in r28,__SP_L__
 547 0026 DEB7      		in r29,__SP_H__
 548 0028 2A97      		sbiw r28,10
 549 002a 0FB6      		in __tmp_reg__,__SREG__
 550 002c F894      		cli
 551 002e DEBF      		out __SP_H__,r29
 552 0030 0FBE      		out __SREG__,__tmp_reg__
 553 0032 CDBF      		out __SP_L__,r28
 554               	/* prologue: function */
 555               	/* frame size = 10 */
 556 0034 DC01      		movw r26,r24
 557 0036 142F      		mov r17,r20
 558               	.LSM59:
 559 0038 ED91      		ld r30,X+
 560 003a FC91      		ld r31,X
 561 003c 1197      		sbiw r26,1
 562               	.LVL51:
 563               	.LSM60:
 564 003e 8081      		ld r24,Z
 565               	.LVL52:
 566 0040 282F      		mov r18,r24
 567               	.LVL53:
 568 0042 30E0      		ldi r19,lo8(0)
 569               	.LVL54:
 570 0044 2053      		subi r18,lo8(-(-48))
 571 0046 3040      		sbci r19,hi8(-(-48))
 572               	.LVL55:
 573               	.LSM61:
 574 0048 2A30      		cpi r18,10
 575 004a 3105      		cpc r19,__zero_reg__
 576 004c 00F4      		brsh .L45
 577               	.LVL56:
 578 004e 8181      		ldd r24,Z+1
 579 0050 8A33      		cpi r24,lo8(58)
 580 0052 01F4      		brne .L45
 581               	.LSM62:
 582 0054 3296      		adiw r30,2
 583 0056 ED93      		st X+,r30
 584 0058 FC93      		st X,r31
 585               	.LSM63:
 586 005a 232B      		or r18,r19
 587 005c 01F0      		breq .L45
 588 005e 8BE0      		ldi r24,lo8(11)
 589 0060 00C0      		rjmp .L46
 590               	.L45:
 591               	.LSM64:
 592 0062 2091 0000 		lds r18,FatFs
 593 0066 3091 0000 		lds r19,(FatFs)+1
 594               	.LVL57:
 595 006a 3A87      		std Y+10,r19
 596 006c 2987      		std Y+9,r18
 597               	.LVL58:
 598 006e DB01      		movw r26,r22
 599               	.LVL59:
 600 0070 2D93      		st X+,r18
 601 0072 3C93      		st X,r19
 602               	.LSM65:
 603 0074 232B      		or r18,r19
 604 0076 01F4      		brne .L47
 605 0078 8CE0      		ldi r24,lo8(12)
 606 007a 00C0      		rjmp .L46
 607               	.L47:
 608               	.LSM66:
 609 007c E985      		ldd r30,Y+9
 610 007e FA85      		ldd r31,Y+10
 611               	.LVL60:
 612 0080 8081      		ld r24,Z
 613 0082 8823      		tst r24
 614 0084 01F0      		breq .L48
 615               	.LSM67:
 616 0086 8181      		ldd r24,Z+1
 617 0088 0E94 0000 		call disk_status
 618               	.LVL61:
 619               	.LSM68:
 620 008c 80FD      		sbrc r24,0
 621 008e 00C0      		rjmp .L48
 622               	.LSM69:
 623 0090 1123      		tst r17
 624 0092 01F4      		brne .+2
 625 0094 00C0      		rjmp .L49
 626 0096 82FD      		sbrc r24,2
 627 0098 00C0      		rjmp .L50
 628 009a 00C0      		rjmp .L49
 629               	.LVL62:
 630               	.L48:
 631               	.LSM70:
 632 009c A985      		ldd r26,Y+9
 633 009e BA85      		ldd r27,Y+10
 634 00a0 1C92      		st X,__zero_reg__
 635               	.LSM71:
 636 00a2 1196      		adiw r26,1
 637 00a4 1C92      		st X,__zero_reg__
 638               	.LSM72:
 639 00a6 80E0      		ldi r24,lo8(0)
 640 00a8 0E94 0000 		call disk_initialize
 641               	.LVL63:
 642               	.LSM73:
 643 00ac 80FF      		sbrs r24,0
 644 00ae 00C0      		rjmp .L51
 645 00b0 83E0      		ldi r24,lo8(3)
 646 00b2 00C0      		rjmp .L46
 647               	.L51:
 648               	.LSM74:
 649 00b4 1123      		tst r17
 650 00b6 01F0      		breq .L52
 651 00b8 82FD      		sbrc r24,2
 652 00ba 00C0      		rjmp .L50
 653               	.L52:
 654               	.LSM75:
 655 00bc 8985      		ldd r24,Y+9
 656 00be 9A85      		ldd r25,Y+10
 657 00c0 40E0      		ldi r20,lo8(0)
 658 00c2 50E0      		ldi r21,hi8(0)
 659 00c4 60E0      		ldi r22,hlo8(0)
 660 00c6 70E0      		ldi r23,hhi8(0)
 661 00c8 0E94 0000 		call check_fs
 662               	.LSM76:
 663 00cc 8130      		cpi r24,lo8(1)
 664               	.LVL64:
 665 00ce 01F0      		breq .L53
 666 00d0 2224      		clr r2
 667 00d2 3324      		clr r3
 668 00d4 2101      		movw r4,r2
 669               	.LVL65:
 670 00d6 00C0      		rjmp .L54
 671               	.LVL66:
 672               	.L53:
 673               	.LSM77:
 674 00d8 E985      		ldd r30,Y+9
 675 00da FA85      		ldd r31,Y+10
 676               	.LVL67:
 677 00dc E451      		subi r30,lo8(-(492))
 678 00de FE4F      		sbci r31,hi8(-(492))
 679               	.LSM78:
 680 00e0 8481      		ldd r24,Z+4
 681               	.LVL68:
 682 00e2 8823      		tst r24
 683 00e4 01F4      		brne .+2
 684 00e6 00C0      		rjmp .L55
 685               	.LSM79:
 686 00e8 2084      		ldd r2,Z+8
 687 00ea 3184      		ldd r3,Z+9
 688 00ec 4284      		ldd r4,Z+10
 689 00ee 5384      		ldd r5,Z+11
 690               	.LVL69:
 691               	.LSM80:
 692 00f0 8985      		ldd r24,Y+9
 693 00f2 9A85      		ldd r25,Y+10
 694 00f4 B201      		movw r22,r4
 695 00f6 A101      		movw r20,r2
 696 00f8 0E94 0000 		call check_fs
 697               	.LVL70:
 698               	.L54:
 699               	.LSM81:
 700 00fc 8330      		cpi r24,lo8(3)
 701 00fe 01F4      		brne .L56
 702 0100 81E0      		ldi r24,lo8(1)
 703               	.LVL71:
 704 0102 00C0      		rjmp .L46
 705               	.LVL72:
 706               	.L56:
 707               	.LSM82:
 708 0104 8823      		tst r24
 709 0106 01F0      		breq .+2
 710 0108 00C0      		rjmp .L55
 711               	.LSM83:
 712 010a E985      		ldd r30,Y+9
 713 010c FA85      		ldd r31,Y+10
 714 010e 81AD      		ldd r24,Z+57
 715 0110 92AD      		ldd r25,Z+58
 716               	.LVL73:
 717 0112 8050      		subi r24,lo8(512)
 718 0114 9240      		sbci r25,hi8(512)
 719 0116 01F0      		breq .+2
 720 0118 00C0      		rjmp .L55
 721               	.LSM84:
 722 011a 2985      		ldd r18,Y+9
 723 011c 3A85      		ldd r19,Y+10
 724 011e 2C5B      		subi r18,lo8(-(68))
 725 0120 3F4F      		sbci r19,hi8(-(68))
 726 0122 3A87      		std Y+10,r19
 727 0124 2987      		std Y+9,r18
 728               	.LVL74:
 729 0126 D901      		movw r26,r18
 730 0128 8D91      		ld r24,X+
 731 012a 9C91      		ld r25,X
 732 012c 1197      		sbiw r26,1
 733 012e A454      		subi r26,lo8(-(-68))
 734 0130 B040      		sbci r27,hi8(-(-68))
 735 0132 BA87      		std Y+10,r27
 736 0134 A987      		std Y+9,r26
 737               	.LVL75:
 738 0136 5C01      		movw r10,r24
 739               	.LVL76:
 740 0138 CC24      		clr r12
 741 013a DD24      		clr r13
 742               	.LVL77:
 743               	.LSM85:
 744 013c A114      		cp r10,__zero_reg__
 745 013e B104      		cpc r11,__zero_reg__
 746 0140 C104      		cpc r12,__zero_reg__
 747 0142 D104      		cpc r13,__zero_reg__
 748 0144 01F4      		brne .L57
 749 0146 AE5A      		subi r26,lo8(-(82))
 750 0148 BF4F      		sbci r27,hi8(-(82))
 751 014a AD90      		ld r10,X+
 752 014c BD90      		ld r11,X+
 753 014e CD90      		ld r12,X+
 754 0150 DC90      		ld r13,X
 755 0152 1397      		sbiw r26,3
 756               	.LVL78:
 757 0154 A255      		subi r26,lo8(-(-82))
 758 0156 B040      		sbci r27,hi8(-(-82))
 759 0158 BA87      		std Y+10,r27
 760 015a A987      		std Y+9,r26
 761               	.LVL79:
 762               	.L57:
 763               	.LSM86:
 764 015c E985      		ldd r30,Y+9
 765 015e FA85      		ldd r31,Y+10
 766 0160 A28E      		std Z+26,r10
 767 0162 B38E      		std Z+27,r11
 768 0164 C48E      		std Z+28,r12
 769 0166 D58E      		std Z+29,r13
 770               	.LSM87:
 771 0168 46AD      		ldd r20,Z+62
 772               	.LVL80:
 773 016a 4383      		std Z+3,r20
 774               	.LSM88:
 775 016c 842F      		mov r24,r20
 776 016e 8150      		subi r24,lo8(-(-1))
 777 0170 8230      		cpi r24,lo8(2)
 778 0172 00F0      		brlo .+2
 779 0174 00C0      		rjmp .L55
 780               	.LSM89:
 781 0176 23AD      		ldd r18,Z+59
 782               	.LVL81:
 783 0178 2283      		std Z+2,r18
 784               	.LSM90:
 785 017a 2223      		tst r18
 786 017c 01F4      		brne .+2
 787 017e 00C0      		rjmp .L55
 788 0180 30E0      		ldi r19,lo8(0)
 789 0182 C901      		movw r24,r18
 790               	.LVL82:
 791 0184 0197      		sbiw r24,1
 792 0186 8223      		and r24,r18
 793 0188 9323      		and r25,r19
 794 018a 892B      		or r24,r25
 795 018c 01F0      		breq .+2
 796 018e 00C0      		rjmp .L55
 797               	.LSM91:
 798 0190 FF96      		adiw r30,63
 799 0192 8080      		ld r8,Z
 800 0194 9180      		ldd r9,Z+1
 801 0196 FF97      		sbiw r30,63
 802 0198 FA87      		std Y+10,r31
 803 019a E987      		std Y+9,r30
 804               	.LVL83:
 805 019c 9186      		std Z+9,r9
 806 019e 8086      		std Z+8,r8
 807               	.LSM92:
 808 01a0 C401      		movw r24,r8
 809 01a2 8F70      		andi r24,lo8(15)
 810 01a4 9070      		andi r25,hi8(15)
 811 01a6 892B      		or r24,r25
 812 01a8 01F0      		breq .+2
 813 01aa 00C0      		rjmp .L55
 814               	.LSM93:
 815 01ac EF5B      		subi r30,lo8(-(65))
 816 01ae FF4F      		sbci r31,hi8(-(65))
 817 01b0 8081      		ld r24,Z
 818 01b2 9181      		ldd r25,Z+1
 819 01b4 E154      		subi r30,lo8(-(-65))
 820 01b6 F040      		sbci r31,hi8(-(-65))
 821 01b8 FA87      		std Y+10,r31
 822 01ba E987      		std Y+9,r30
 823               	.LVL84:
 824 01bc 7C01      		movw r14,r24
 825               	.LVL85:
 826 01be 00E0      		ldi r16,lo8(0)
 827 01c0 10E0      		ldi r17,hi8(0)
 828               	.LVL86:
 829               	.LSM94:
 830 01c2 E114      		cp r14,__zero_reg__
 831 01c4 F104      		cpc r15,__zero_reg__
 832 01c6 0105      		cpc r16,__zero_reg__
 833 01c8 1105      		cpc r17,__zero_reg__
 834 01ca 01F4      		brne .L58
 835 01cc E25B      		subi r30,lo8(-(78))
 836 01ce FF4F      		sbci r31,hi8(-(78))
 837 01d0 E080      		ld r14,Z
 838 01d2 F180      		ldd r15,Z+1
 839 01d4 0281      		ldd r16,Z+2
 840 01d6 1381      		ldd r17,Z+3
 841               	.LVL87:
 842 01d8 EE54      		subi r30,lo8(-(-78))
 843 01da F040      		sbci r31,hi8(-(-78))
 844 01dc FA87      		std Y+10,r31
 845 01de E987      		std Y+9,r30
 846               	.LVL88:
 847               	.L58:
 848               	.LSM95:
 849 01e0 A985      		ldd r26,Y+9
 850 01e2 BA85      		ldd r27,Y+10
 851 01e4 DC96      		adiw r26,60
 852 01e6 6D90      		ld r6,X+
 853 01e8 7C90      		ld r7,X
 854 01ea DD97      		sbiw r26,60+1
 855               	.LVL89:
 856               	.LSM96:
 857 01ec 6114      		cp r6,__zero_reg__
 858 01ee 7104      		cpc r7,__zero_reg__
 859 01f0 01F4      		brne .+2
 860 01f2 00C0      		rjmp .L55
 861               	.LSM97:
 862 01f4 242F      		mov r18,r20
 863               	.LVL90:
 864 01f6 30E0      		ldi r19,lo8(0)
 865               	.LVL91:
 866 01f8 40E0      		ldi r20,lo8(0)
 867 01fa 50E0      		ldi r21,hi8(0)
 868               	.LVL92:
 869 01fc C601      		movw r24,r12
 870 01fe B501      		movw r22,r10
 871 0200 0E94 0000 		call __mulsi3
 872               	.LVL93:
 873 0204 6983      		std Y+1,r22
 874 0206 7A83      		std Y+2,r23
 875 0208 8B83      		std Y+3,r24
 876 020a 9C83      		std Y+4,r25
 877               	.LVL94:
 878               	.LSM98:
 879 020c 9301      		movw r18,r6
 880 020e 40E0      		ldi r20,lo8(0)
 881 0210 50E0      		ldi r21,hi8(0)
 882               	.LVL95:
 883 0212 2D83      		std Y+5,r18
 884 0214 3E83      		std Y+6,r19
 885 0216 4F83      		std Y+7,r20
 886 0218 5887      		std Y+8,r21
 887 021a A4E0      		ldi r26,4
 888 021c 9694      	1:	lsr r9
 889 021e 8794      		ror r8
 890 0220 AA95      		dec r26
 891 0222 01F4      		brne 1b
 892 0224 5401      		movw r10,r8
 893               	.LVL96:
 894 0226 CC24      		clr r12
 895 0228 DD24      		clr r13
 896               	.LVL97:
 897 022a A20E      		add r10,r18
 898 022c B31E      		adc r11,r19
 899 022e C41E      		adc r12,r20
 900 0230 D51E      		adc r13,r21
 901               	.LVL98:
 902 0232 A60E      		add r10,r22
 903 0234 B71E      		adc r11,r23
 904 0236 C81E      		adc r12,r24
 905 0238 D91E      		adc r13,r25
 906               	.LSM99:
 907 023a EA14      		cp r14,r10
 908 023c FB04      		cpc r15,r11
 909 023e 0C05      		cpc r16,r12
 910 0240 1D05      		cpc r17,r13
 911 0242 00F4      		brsh .+2
 912 0244 00C0      		rjmp .L55
 913               	.LSM100:
 914 0246 EA18      		sub r14,r10
 915 0248 FB08      		sbc r15,r11
 916 024a 0C09      		sbc r16,r12
 917 024c 1D09      		sbc r17,r13
 918               	.LVL99:
 919 024e A985      		ldd r26,Y+9
 920 0250 BA85      		ldd r27,Y+10
 921 0252 1296      		adiw r26,2
 922 0254 2C91      		ld r18,X
 923 0256 30E0      		ldi r19,lo8(0)
 924               	.LVL100:
 925 0258 40E0      		ldi r20,lo8(0)
 926 025a 50E0      		ldi r21,hi8(0)
 927 025c C801      		movw r24,r16
 928 025e B701      		movw r22,r14
 929 0260 0E94 0000 		call __udivmodsi4
 930 0264 C901      		movw r24,r18
 931 0266 DA01      		movw r26,r20
 932               	.LSM101:
 933 0268 0097      		sbiw r24,0
 934 026a A105      		cpc r26,__zero_reg__
 935 026c B105      		cpc r27,__zero_reg__
 936               	.LVL101:
 937 026e 01F4      		brne .+2
 938 0270 00C0      		rjmp .L55
 939               	.LSM102:
 940 0272 863F      		cpi r24,lo8(4086)
 941 0274 EFE0      		ldi r30,hi8(4086)
 942 0276 9E07      		cpc r25,r30
 943 0278 E0E0      		ldi r30,hlo8(4086)
 944 027a AE07      		cpc r26,r30
 945 027c E0E0      		ldi r30,hhi8(4086)
 946 027e BE07      		cpc r27,r30
 947 0280 00F4      		brsh .L59
 948 0282 9924      		clr r9
 949 0284 9394      		inc r9
 950               	.LVL102:
 951 0286 00C0      		rjmp .L60
 952               	.LVL103:
 953               	.L59:
 954               	.LSM103:
 955 0288 863F      		cpi r24,lo8(65526)
 956 028a FFEF      		ldi r31,hi8(65526)
 957 028c 9F07      		cpc r25,r31
 958 028e F0E0      		ldi r31,hlo8(65526)
 959 0290 AF07      		cpc r26,r31
 960 0292 F0E0      		ldi r31,hhi8(65526)
 961 0294 BF07      		cpc r27,r31
 962 0296 00F0      		brlo .L61
 963 0298 F3E0      		ldi r31,lo8(3)
 964 029a 9F2E      		mov r9,r31
 965               	.LVL104:
 966 029c 00C0      		rjmp .L60
 967               	.LVL105:
 968               	.L61:
 969 029e E2E0      		ldi r30,lo8(2)
 970 02a0 9E2E      		mov r9,r30
 971               	.LVL106:
 972               	.L60:
 973               	.LSM104:
 974 02a2 72E0      		ldi r23,lo8(2)
 975 02a4 E72E      		mov r14,r23
 976 02a6 F12C      		mov r15,__zero_reg__
 977 02a8 012D      		mov r16,__zero_reg__
 978 02aa 112D      		mov r17,__zero_reg__
 979               	.LVL107:
 980 02ac E80E      		add r14,r24
 981 02ae F91E      		adc r15,r25
 982 02b0 0A1F      		adc r16,r26
 983 02b2 1B1F      		adc r17,r27
 984 02b4 A985      		ldd r26,Y+9
 985 02b6 BA85      		ldd r27,Y+10
 986 02b8 5696      		adiw r26,22
 987 02ba ED92      		st X+,r14
 988 02bc FD92      		st X+,r15
 989 02be 0D93      		st X+,r16
 990 02c0 1C93      		st X,r17
 991 02c2 5997      		sbiw r26,22+3
 992               	.LSM105:
 993 02c4 A20C      		add r10,r2
 994 02c6 B31C      		adc r11,r3
 995 02c8 C41C      		adc r12,r4
 996 02ca D51C      		adc r13,r5
 997 02cc E985      		ldd r30,Y+9
 998 02ce FA85      		ldd r31,Y+10
 999 02d0 A6A2      		std Z+38,r10
 1000 02d2 B7A2      		std Z+39,r11
 1001 02d4 C0A6      		std Z+40,r12
 1002 02d6 D1A6      		std Z+41,r13
 1003               	.LSM106:
 1004 02d8 8D81      		ldd r24,Y+5
 1005 02da 9E81      		ldd r25,Y+6
 1006 02dc AF81      		ldd r26,Y+7
 1007 02de B885      		ldd r27,Y+8
 1008               	.LVL108:
 1009 02e0 820D      		add r24,r2
 1010 02e2 931D      		adc r25,r3
 1011 02e4 A41D      		adc r26,r4
 1012 02e6 B51D      		adc r27,r5
 1013 02e8 E985      		ldd r30,Y+9
 1014 02ea FA85      		ldd r31,Y+10
 1015 02ec 868F      		std Z+30,r24
 1016 02ee 978F      		std Z+31,r25
 1017 02f0 A0A3      		std Z+32,r26
 1018 02f2 B1A3      		std Z+33,r27
 1019 02f4 2085      		ldd r18,Z+8
 1020 02f6 3185      		ldd r19,Z+9
 1021               	.LSM107:
 1022 02f8 F3E0      		ldi r31,lo8(3)
 1023 02fa 9F16      		cp r9,r31
 1024 02fc 01F4      		brne .L62
 1025               	.LSM108:
 1026 02fe 232B      		or r18,r19
 1027 0300 01F0      		breq .+2
 1028 0302 00C0      		rjmp .L55
 1029               	.LSM109:
 1030 0304 2985      		ldd r18,Y+9
 1031 0306 3A85      		ldd r19,Y+10
 1032 0308 265A      		subi r18,lo8(-(90))
 1033 030a 3F4F      		sbci r19,hi8(-(90))
 1034 030c 3A87      		std Y+10,r19
 1035 030e 2987      		std Y+9,r18
 1036               	.LVL109:
 1037 0310 F901      		movw r30,r18
 1038 0312 8081      		ld r24,Z
 1039 0314 9181      		ldd r25,Z+1
 1040 0316 A281      		ldd r26,Z+2
 1041 0318 B381      		ldd r27,Z+3
 1042 031a EA55      		subi r30,lo8(-(-90))
 1043 031c F040      		sbci r31,hi8(-(-90))
 1044 031e FA87      		std Y+10,r31
 1045 0320 E987      		std Y+9,r30
 1046               	.LVL110:
 1047 0322 82A3      		std Z+34,r24
 1048 0324 93A3      		std Z+35,r25
 1049 0326 A4A3      		std Z+36,r26
 1050 0328 B5A3      		std Z+37,r27
 1051               	.LSM110:
 1052 032a A801      		movw r20,r16
 1053 032c 9701      		movw r18,r14
 1054               	.LVL111:
 1055 032e 62E0      		ldi r22,2
 1056 0330 220F      	1:	lsl r18
 1057 0332 331F      		rol r19
 1058 0334 441F      		rol r20
 1059 0336 551F      		rol r21
 1060 0338 6A95      		dec r22
 1061 033a 01F4      		brne 1b
 1062 033c 00C0      		rjmp .L63
 1063               	.LVL112:
 1064               	.L62:
 1065               	.LSM111:
 1066 033e 232B      		or r18,r19
 1067 0340 01F4      		brne .+2
 1068 0342 00C0      		rjmp .L55
 1069               	.LSM112:
 1070 0344 2981      		ldd r18,Y+1
 1071 0346 3A81      		ldd r19,Y+2
 1072 0348 4B81      		ldd r20,Y+3
 1073 034a 5C81      		ldd r21,Y+4
 1074 034c 820F      		add r24,r18
 1075 034e 931F      		adc r25,r19
 1076 0350 A41F      		adc r26,r20
 1077 0352 B51F      		adc r27,r21
 1078 0354 E985      		ldd r30,Y+9
 1079 0356 FA85      		ldd r31,Y+10
 1080 0358 82A3      		std Z+34,r24
 1081 035a 93A3      		std Z+35,r25
 1082 035c A4A3      		std Z+36,r26
 1083 035e B5A3      		std Z+37,r27
 1084 0360 D801      		movw r26,r16
 1085 0362 C701      		movw r24,r14
 1086 0364 880F      		lsl r24
 1087 0366 991F      		rol r25
 1088 0368 AA1F      		rol r26
 1089 036a BB1F      		rol r27
 1090               	.LSM113:
 1091 036c F2E0      		ldi r31,lo8(2)
 1092 036e 9F16      		cp r9,r31
 1093 0370 01F4      		brne .L64
 1094 0372 9C01      		movw r18,r24
 1095 0374 AD01      		movw r20,r26
 1096               	.LVL113:
 1097 0376 00C0      		rjmp .L63
 1098               	.LVL114:
 1099               	.L64:
 1100 0378 9C01      		movw r18,r24
 1101 037a AD01      		movw r20,r26
 1102               	.LVL115:
 1103 037c 2E0D      		add r18,r14
 1104 037e 3F1D      		adc r19,r15
 1105 0380 401F      		adc r20,r16
 1106 0382 511F      		adc r21,r17
 1107 0384 5695      		lsr r21
 1108 0386 4795      		ror r20
 1109 0388 3795      		ror r19
 1110 038a 2795      		ror r18
 1111 038c 81E0      		ldi r24,lo8(1)
 1112 038e 90E0      		ldi r25,hi8(1)
 1113 0390 A0E0      		ldi r26,hlo8(1)
 1114 0392 B0E0      		ldi r27,hhi8(1)
 1115 0394 E822      		and r14,r24
 1116 0396 F922      		and r15,r25
 1117 0398 0A23      		and r16,r26
 1118 039a 1B23      		and r17,r27
 1119 039c 2E0D      		add r18,r14
 1120 039e 3F1D      		adc r19,r15
 1121 03a0 401F      		adc r20,r16
 1122 03a2 511F      		adc r21,r17
 1123               	.L63:
 1124               	.LSM114:
 1125 03a4 2150      		subi r18,lo8(-(511))
 1126 03a6 3E4F      		sbci r19,hi8(-(511))
 1127 03a8 4F4F      		sbci r20,hlo8(-(511))
 1128 03aa 5F4F      		sbci r21,hhi8(-(511))
 1129 03ac 89E0      		ldi r24,9
 1130 03ae 5695      	1:	lsr r21
 1131 03b0 4795      		ror r20
 1132 03b2 3795      		ror r19
 1133 03b4 2795      		ror r18
 1134 03b6 8A95      		dec r24
 1135 03b8 01F4      		brne 1b
 1136 03ba E985      		ldd r30,Y+9
 1137 03bc FA85      		ldd r31,Y+10
 1138 03be 828D      		ldd r24,Z+26
 1139 03c0 938D      		ldd r25,Z+27
 1140 03c2 A48D      		ldd r26,Z+28
 1141 03c4 B58D      		ldd r27,Z+29
 1142 03c6 8217      		cp r24,r18
 1143 03c8 9307      		cpc r25,r19
 1144 03ca A407      		cpc r26,r20
 1145 03cc B507      		cpc r27,r21
 1146 03ce 00F4      		brsh .+2
 1147 03d0 00C0      		rjmp .L55
 1148               	.LSM115:
 1149 03d2 8FEF      		ldi r24,lo8(-1)
 1150 03d4 9FEF      		ldi r25,hi8(-1)
 1151 03d6 AFEF      		ldi r26,hlo8(-1)
 1152 03d8 BFEF      		ldi r27,hhi8(-1)
 1153 03da 8687      		std Z+14,r24
 1154 03dc 9787      		std Z+15,r25
 1155 03de A08B      		std Z+16,r26
 1156 03e0 B18B      		std Z+17,r27
 1157               	.LSM116:
 1158 03e2 A985      		ldd r26,Y+9
 1159 03e4 BA85      		ldd r27,Y+10
 1160 03e6 1A96      		adiw r26,10
 1161 03e8 1D92      		st X+,__zero_reg__
 1162 03ea 1D92      		st X+,__zero_reg__
 1163 03ec 1D92      		st X+,__zero_reg__
 1164 03ee 1C92      		st X,__zero_reg__
 1165 03f0 1D97      		sbiw r26,10+3
 1166               	.LSM117:
 1167 03f2 B3E0      		ldi r27,lo8(3)
 1168 03f4 9B16      		cp r9,r27
 1169 03f6 01F0      		breq .+2
 1170 03f8 00C0      		rjmp .L65
 1171               	.LSM118:
 1172 03fa E985      		ldd r30,Y+9
 1173 03fc FA85      		ldd r31,Y+10
 1174 03fe 1582      		std Z+5,__zero_reg__
 1175               	.LSM119:
 1176 0400 E25A      		subi r30,lo8(-(94))
 1177 0402 FF4F      		sbci r31,hi8(-(94))
 1178 0404 2081      		ld r18,Z
 1179 0406 3181      		ldd r19,Z+1
 1180               	.LVL116:
 1181 0408 EE55      		subi r30,lo8(-(-94))
 1182 040a F040      		sbci r31,hi8(-(-94))
 1183 040c FA87      		std Y+10,r31
 1184 040e E987      		std Y+9,r30
 1185               	.LVL117:
 1186 0410 40E0      		ldi r20,lo8(0)
 1187 0412 50E0      		ldi r21,hi8(0)
 1188 0414 220D      		add r18,r2
 1189 0416 331D      		adc r19,r3
 1190 0418 441D      		adc r20,r4
 1191 041a 551D      		adc r21,r5
 1192 041c 228B      		std Z+18,r18
 1193 041e 338B      		std Z+19,r19
 1194 0420 448B      		std Z+20,r20
 1195 0422 558B      		std Z+21,r21
 1196               	.LSM120:
 1197 0424 BF01      		movw r22,r30
 1198 0426 625D      		subi r22,lo8(-(46))
 1199 0428 7F4F      		sbci r23,hi8(-(46))
 1200 042a 8181      		ldd r24,Z+1
 1201 042c 01E0      		ldi r16,lo8(1)
 1202               	.LVL118:
 1203 042e 0E94 0000 		call disk_read
 1204 0432 8823      		tst r24
 1205 0434 01F0      		breq .+2
 1206 0436 00C0      		rjmp .L65
 1207 0438 E985      		ldd r30,Y+9
 1208 043a FA85      		ldd r31,Y+10
 1209 043c E45D      		subi r30,lo8(-(556))
 1210 043e FD4F      		sbci r31,hi8(-(556))
 1211 0440 8081      		ld r24,Z
 1212 0442 9181      		ldd r25,Z+1
 1213 0444 EC52      		subi r30,lo8(-(-556))
 1214 0446 F240      		sbci r31,hi8(-(-556))
 1215 0448 FA87      		std Y+10,r31
 1216 044a E987      		std Y+9,r30
 1217               	.LVL119:
 1218 044c 8555      		subi r24,lo8(-21931)
 1219 044e 9A4A      		sbci r25,hi8(-21931)
 1220 0450 01F0      		breq .+2
 1221 0452 00C0      		rjmp .L65
 1222 0454 E985      		ldd r30,Y+9
 1223 0456 FA85      		ldd r31,Y+10
 1224 0458 86A5      		ldd r24,Z+46
 1225 045a 97A5      		ldd r25,Z+47
 1226 045c A0A9      		ldd r26,Z+48
 1227 045e B1A9      		ldd r27,Z+49
 1228 0460 8255      		subi r24,lo8(1096897106)
 1229 0462 9245      		sbci r25,hi8(1096897106)
 1230 0464 A146      		sbci r26,hlo8(1096897106)
 1231 0466 B144      		sbci r27,hhi8(1096897106)
 1232 0468 01F4      		brne .L65
 1233 046a 2985      		ldd r18,Y+9
 1234 046c 3A85      		ldd r19,Y+10
 1235 046e 2E5E      		subi r18,lo8(-(530))
 1236 0470 3D4F      		sbci r19,hi8(-(530))
 1237 0472 3A87      		std Y+10,r19
 1238 0474 2987      		std Y+9,r18
 1239               	.LVL120:
 1240 0476 F901      		movw r30,r18
 1241 0478 8081      		ld r24,Z
 1242 047a 9181      		ldd r25,Z+1
 1243 047c A281      		ldd r26,Z+2
 1244 047e B381      		ldd r27,Z+3
 1245 0480 E251      		subi r30,lo8(-(-530))
 1246 0482 F240      		sbci r31,hi8(-(-530))
 1247 0484 FA87      		std Y+10,r31
 1248 0486 E987      		std Y+9,r30
 1249               	.LVL121:
 1250 0488 8257      		subi r24,lo8(1631679090)
 1251 048a 9247      		sbci r25,hi8(1631679090)
 1252 048c A144      		sbci r26,hlo8(1631679090)
 1253 048e B146      		sbci r27,hhi8(1631679090)
 1254 0490 01F4      		brne .L65
 1255               	.LSM121:
 1256 0492 2985      		ldd r18,Y+9
 1257 0494 3A85      		ldd r19,Y+10
 1258 0496 265E      		subi r18,lo8(-(538))
 1259 0498 3D4F      		sbci r19,hi8(-(538))
 1260 049a 3A87      		std Y+10,r19
 1261 049c 2987      		std Y+9,r18
 1262               	.LVL122:
 1263 049e F901      		movw r30,r18
 1264 04a0 8081      		ld r24,Z
 1265 04a2 9181      		ldd r25,Z+1
 1266 04a4 A281      		ldd r26,Z+2
 1267 04a6 B381      		ldd r27,Z+3
 1268 04a8 EA51      		subi r30,lo8(-(-538))
 1269 04aa F240      		sbci r31,hi8(-(-538))
 1270 04ac FA87      		std Y+10,r31
 1271 04ae E987      		std Y+9,r30
 1272               	.LVL123:
 1273 04b0 8287      		std Z+10,r24
 1274 04b2 9387      		std Z+11,r25
 1275 04b4 A487      		std Z+12,r26
 1276 04b6 B587      		std Z+13,r27
 1277               	.LSM122:
 1278 04b8 EA5E      		subi r30,lo8(-(534))
 1279 04ba FD4F      		sbci r31,hi8(-(534))
 1280 04bc 8081      		ld r24,Z
 1281 04be 9181      		ldd r25,Z+1
 1282 04c0 A281      		ldd r26,Z+2
 1283 04c2 B381      		ldd r27,Z+3
 1284 04c4 E651      		subi r30,lo8(-(-534))
 1285 04c6 F240      		sbci r31,hi8(-(-534))
 1286 04c8 FA87      		std Y+10,r31
 1287 04ca E987      		std Y+9,r30
 1288               	.LVL124:
 1289 04cc 8687      		std Z+14,r24
 1290 04ce 9787      		std Z+15,r25
 1291 04d0 A08B      		std Z+16,r26
 1292 04d2 B18B      		std Z+17,r27
 1293               	.LVL125:
 1294               	.L65:
 1295               	.LSM123:
 1296 04d4 A985      		ldd r26,Y+9
 1297 04d6 BA85      		ldd r27,Y+10
 1298 04d8 9C92      		st X,r9
 1299               	.LSM124:
 1300 04da 8091 0000 		lds r24,Fsid
 1301 04de 9091 0000 		lds r25,(Fsid)+1
 1302 04e2 0196      		adiw r24,1
 1303 04e4 9093 0000 		sts (Fsid)+1,r25
 1304 04e8 8093 0000 		sts Fsid,r24
 1305 04ec 1796      		adiw r26,6+1
 1306 04ee 9C93      		st X,r25
 1307 04f0 8E93      		st -X,r24
 1308 04f2 1697      		sbiw r26,6
 1309               	.LSM125:
 1310 04f4 E985      		ldd r30,Y+9
 1311 04f6 FA85      		ldd r31,Y+10
 1312 04f8 12A6      		std Z+42,__zero_reg__
 1313 04fa 13A6      		std Z+43,__zero_reg__
 1314 04fc 14A6      		std Z+44,__zero_reg__
 1315 04fe 15A6      		std Z+45,__zero_reg__
 1316               	.LSM126:
 1317 0500 1482      		std Z+4,__zero_reg__
 1318 0502 00C0      		rjmp .L49
 1319               	.LVL126:
 1320               	.L50:
 1321               	.LSM127:
 1322 0504 8AE0      		ldi r24,lo8(10)
 1323 0506 00C0      		rjmp .L46
 1324               	.LVL127:
 1325               	.L49:
 1326 0508 80E0      		ldi r24,lo8(0)
 1327 050a 00C0      		rjmp .L46
 1328               	.LVL128:
 1329               	.L55:
 1330 050c 8DE0      		ldi r24,lo8(13)
 1331               	.LVL129:
 1332               	.L46:
 1333               	/* epilogue start */
 1334               	.LSM128:
 1335 050e 2A96      		adiw r28,10
 1336 0510 0FB6      		in __tmp_reg__,__SREG__
 1337 0512 F894      		cli
 1338 0514 DEBF      		out __SP_H__,r29
 1339 0516 0FBE      		out __SREG__,__tmp_reg__
 1340 0518 CDBF      		out __SP_L__,r28
 1341 051a CF91      		pop r28
 1342 051c DF91      		pop r29
 1343 051e 1F91      		pop r17
 1344               	.LVL130:
 1345 0520 0F91      		pop r16
 1346               	.LVL131:
 1347 0522 FF90      		pop r15
 1348 0524 EF90      		pop r14
 1349               	.LVL132:
 1350 0526 DF90      		pop r13
 1351 0528 CF90      		pop r12
 1352               	.LVL133:
 1353 052a BF90      		pop r11
 1354 052c AF90      		pop r10
 1355               	.LVL134:
 1356 052e 9F90      		pop r9
 1357               	.LVL135:
 1358 0530 8F90      		pop r8
 1359 0532 7F90      		pop r7
 1360 0534 6F90      		pop r6
 1361               	.LVL136:
 1362 0536 5F90      		pop r5
 1363 0538 4F90      		pop r4
 1364 053a 3F90      		pop r3
 1365 053c 2F90      		pop r2
 1366               	.LVL137:
 1367 053e 0895      		ret
 1368               	.LFE154:
 1370               		.section	.text.move_window,"ax",@progbits
 1372               	move_window:
 1373               	.LFB137:
 1374               	.LSM129:
 1375               	.LVL138:
 1376 0000 6F92      		push r6
 1377 0002 7F92      		push r7
 1378 0004 8F92      		push r8
 1379 0006 9F92      		push r9
 1380 0008 AF92      		push r10
 1381 000a BF92      		push r11
 1382 000c CF92      		push r12
 1383 000e DF92      		push r13
 1384 0010 EF92      		push r14
 1385 0012 FF92      		push r15
 1386 0014 0F93      		push r16
 1387 0016 1F93      		push r17
 1388 0018 CF93      		push r28
 1389 001a DF93      		push r29
 1390               	/* prologue: function */
 1391               	/* frame size = 0 */
 1392 001c EC01      		movw r28,r24
 1393 001e 4A01      		movw r8,r20
 1394 0020 5B01      		movw r10,r22
 1395               	.LSM130:
 1396 0022 CAA4      		ldd r12,Y+42
 1397 0024 DBA4      		ldd r13,Y+43
 1398 0026 ECA4      		ldd r14,Y+44
 1399 0028 FDA4      		ldd r15,Y+45
 1400               	.LVL139:
 1401               	.LSM131:
 1402 002a C416      		cp r12,r20
 1403 002c D506      		cpc r13,r21
 1404 002e E606      		cpc r14,r22
 1405 0030 F706      		cpc r15,r23
 1406 0032 01F4      		brne .+2
 1407 0034 00C0      		rjmp .L68
 1408               	.LVL140:
 1409               	.LSM132:
 1410 0036 8C81      		ldd r24,Y+4
 1411 0038 8823      		tst r24
 1412 003a 01F0      		breq .L69
 1413               	.LSM133:
 1414 003c BEE2      		ldi r27,lo8(46)
 1415 003e 6B2E      		mov r6,r27
 1416 0040 712C      		mov r7,__zero_reg__
 1417 0042 6C0E      		add r6,r28
 1418 0044 7D1E      		adc r7,r29
 1419 0046 8981      		ldd r24,Y+1
 1420 0048 B301      		movw r22,r6
 1421 004a A701      		movw r20,r14
 1422 004c 9601      		movw r18,r12
 1423 004e 01E0      		ldi r16,lo8(1)
 1424 0050 0E94 0000 		call disk_write
 1425               	.LVL141:
 1426 0054 8823      		tst r24
 1427 0056 01F4      		brne .L70
 1428               	.LSM134:
 1429 0058 1C82      		std Y+4,__zero_reg__
 1430               	.LSM135:
 1431 005a 8A8D      		ldd r24,Y+26
 1432 005c 9B8D      		ldd r25,Y+27
 1433 005e AC8D      		ldd r26,Y+28
 1434 0060 BD8D      		ldd r27,Y+29
 1435 0062 2E8D      		ldd r18,Y+30
 1436 0064 3F8D      		ldd r19,Y+31
 1437 0066 48A1      		ldd r20,Y+32
 1438 0068 59A1      		ldd r21,Y+33
 1439 006a 820F      		add r24,r18
 1440 006c 931F      		adc r25,r19
 1441 006e A41F      		adc r26,r20
 1442 0070 B51F      		adc r27,r21
 1443 0072 C816      		cp r12,r24
 1444 0074 D906      		cpc r13,r25
 1445 0076 EA06      		cpc r14,r26
 1446 0078 FB06      		cpc r15,r27
 1447 007a 00F4      		brsh .L69
 1448               	.LBB2:
 1449               	.LSM136:
 1450 007c 1B81      		ldd r17,Y+3
 1451               	.LVL142:
 1452 007e 00C0      		rjmp .L71
 1453               	.L72:
 1454               	.LSM137:
 1455 0080 8A8D      		ldd r24,Y+26
 1456 0082 9B8D      		ldd r25,Y+27
 1457 0084 AC8D      		ldd r26,Y+28
 1458 0086 BD8D      		ldd r27,Y+29
 1459 0088 C80E      		add r12,r24
 1460 008a D91E      		adc r13,r25
 1461 008c EA1E      		adc r14,r26
 1462 008e FB1E      		adc r15,r27
 1463               	.LSM138:
 1464 0090 8981      		ldd r24,Y+1
 1465 0092 B301      		movw r22,r6
 1466 0094 A701      		movw r20,r14
 1467 0096 9601      		movw r18,r12
 1468 0098 01E0      		ldi r16,lo8(1)
 1469 009a 0E94 0000 		call disk_write
 1470               	.LSM139:
 1471 009e 1150      		subi r17,lo8(-(-1))
 1472               	.L71:
 1473 00a0 1230      		cpi r17,lo8(2)
 1474 00a2 00F4      		brsh .L72
 1475               	.LVL143:
 1476               	.L69:
 1477               	.LBE2:
 1478               	.LSM140:
 1479 00a4 8114      		cp r8,__zero_reg__
 1480 00a6 9104      		cpc r9,__zero_reg__
 1481 00a8 A104      		cpc r10,__zero_reg__
 1482 00aa B104      		cpc r11,__zero_reg__
 1483 00ac 01F0      		breq .L68
 1484               	.LSM141:
 1485 00ae BE01      		movw r22,r28
 1486 00b0 625D      		subi r22,lo8(-(46))
 1487 00b2 7F4F      		sbci r23,hi8(-(46))
 1488 00b4 8981      		ldd r24,Y+1
 1489 00b6 A501      		movw r20,r10
 1490 00b8 9401      		movw r18,r8
 1491 00ba 01E0      		ldi r16,lo8(1)
 1492 00bc 0E94 0000 		call disk_read
 1493 00c0 8823      		tst r24
 1494 00c2 01F4      		brne .L70
 1495               	.LSM142:
 1496 00c4 8AA6      		std Y+42,r8
 1497 00c6 9BA6      		std Y+43,r9
 1498 00c8 ACA6      		std Y+44,r10
 1499 00ca BDA6      		std Y+45,r11
 1500 00cc 00C0      		rjmp .L73
 1501               	.L70:
 1502 00ce 81E0      		ldi r24,lo8(1)
 1503 00d0 00C0      		rjmp .L73
 1504               	.LVL144:
 1505               	.L68:
 1506 00d2 80E0      		ldi r24,lo8(0)
 1507               	.LVL145:
 1508               	.L73:
 1509               	/* epilogue start */
 1510               	.LSM143:
 1511 00d4 DF91      		pop r29
 1512 00d6 CF91      		pop r28
 1513               	.LVL146:
 1514 00d8 1F91      		pop r17
 1515               	.LVL147:
 1516 00da 0F91      		pop r16
 1517 00dc FF90      		pop r15
 1518 00de EF90      		pop r14
 1519 00e0 DF90      		pop r13
 1520 00e2 CF90      		pop r12
 1521               	.LVL148:
 1522 00e4 BF90      		pop r11
 1523 00e6 AF90      		pop r10
 1524 00e8 9F90      		pop r9
 1525 00ea 8F90      		pop r8
 1526               	.LVL149:
 1527 00ec 7F90      		pop r7
 1528 00ee 6F90      		pop r6
 1529 00f0 0895      		ret
 1530               	.LFE137:
 1532               		.section	.text.put_fat,"ax",@progbits
 1533               	.global	put_fat
 1535               	put_fat:
 1536               	.LFB140:
 1537               	.LSM144:
 1538               	.LVL150:
 1539 0000 8F92      		push r8
 1540 0002 9F92      		push r9
 1541 0004 AF92      		push r10
 1542 0006 BF92      		push r11
 1543 0008 CF92      		push r12
 1544 000a DF92      		push r13
 1545 000c EF92      		push r14
 1546 000e FF92      		push r15
 1547 0010 0F93      		push r16
 1548               	.LVL151:
 1549 0012 1F93      		push r17
 1550 0014 CF93      		push r28
 1551 0016 DF93      		push r29
 1552               	/* prologue: function */
 1553               	/* frame size = 0 */
 1554 0018 EC01      		movw r28,r24
 1555 001a 6A01      		movw r12,r20
 1556 001c 7B01      		movw r14,r22
 1557 001e 4801      		movw r8,r16
 1558 0020 5901      		movw r10,r18
 1559               	.LVL152:
 1560               	.LSM145:
 1561 0022 4230      		cpi r20,lo8(2)
 1562 0024 5105      		cpc r21,__zero_reg__
 1563 0026 6105      		cpc r22,__zero_reg__
 1564 0028 7105      		cpc r23,__zero_reg__
 1565               	.LVL153:
 1566 002a 00F4      		brsh .+2
 1567 002c 00C0      		rjmp .L76
 1568               	.LVL154:
 1569 002e 8E89      		ldd r24,Y+22
 1570 0030 9F89      		ldd r25,Y+23
 1571 0032 A88D      		ldd r26,Y+24
 1572 0034 B98D      		ldd r27,Y+25
 1573 0036 4817      		cp r20,r24
 1574 0038 5907      		cpc r21,r25
 1575 003a 6A07      		cpc r22,r26
 1576 003c 7B07      		cpc r23,r27
 1577 003e 00F0      		brlo .+2
 1578 0040 00C0      		rjmp .L76
 1579               	.LSM146:
 1580 0042 8881      		ld r24,Y
 1581 0044 8230      		cpi r24,lo8(2)
 1582 0046 01F4      		brne .+2
 1583 0048 00C0      		rjmp .L79
 1584 004a 8330      		cpi r24,lo8(3)
 1585 004c 01F4      		brne .+2
 1586 004e 00C0      		rjmp .L80
 1587 0050 8130      		cpi r24,lo8(1)
 1588 0052 01F0      		breq .L78
 1589 0054 22E0      		ldi r18,lo8(2)
 1590               	.LVL155:
 1591 0056 00C0      		rjmp .L81
 1592               	.LVL156:
 1593               	.L78:
 1594               	.LSM147:
 1595 0058 8A01      		movw r16,r20
 1596               	.LVL157:
 1597 005a 1695      		lsr r17
 1598 005c 0795      		ror r16
 1599               	.LVL158:
 1600 005e 040F      		add r16,r20
 1601 0060 151F      		adc r17,r21
 1602               	.LSM148:
 1603 0062 A801      		movw r20,r16
 1604               	.LVL159:
 1605 0064 452F      		mov r20,r21
 1606 0066 5527      		clr r21
 1607 0068 4695      		lsr r20
 1608 006a 60E0      		ldi r22,lo8(0)
 1609 006c 70E0      		ldi r23,hi8(0)
 1610 006e 8E8D      		ldd r24,Y+30
 1611 0070 9F8D      		ldd r25,Y+31
 1612 0072 A8A1      		ldd r26,Y+32
 1613 0074 B9A1      		ldd r27,Y+33
 1614 0076 480F      		add r20,r24
 1615 0078 591F      		adc r21,r25
 1616 007a 6A1F      		adc r22,r26
 1617 007c 7B1F      		adc r23,r27
 1618 007e CE01      		movw r24,r28
 1619 0080 0E94 0000 		call move_window
 1620 0084 282F      		mov r18,r24
 1621               	.LVL160:
 1622               	.LSM149:
 1623 0086 8823      		tst r24
 1624 0088 01F0      		breq .+2
 1625 008a 00C0      		rjmp .L81
 1626               	.LVL161:
 1627               	.LSM150:
 1628 008c D801      		movw r26,r16
 1629 008e B170      		andi r27,hi8(511)
 1630               	.LSM151:
 1631 0090 E1E0      		ldi r30,lo8(1)
 1632 0092 EE2E      		mov r14,r30
 1633 0094 F12C      		mov r15,__zero_reg__
 1634 0096 EC20      		and r14,r12
 1635 0098 FD20      		and r15,r13
 1636 009a E114      		cp r14,__zero_reg__
 1637 009c F104      		cpc r15,__zero_reg__
 1638 009e 01F0      		breq .L82
 1639 00a0 FE01      		movw r30,r28
 1640 00a2 EA0F      		add r30,r26
 1641 00a4 FB1F      		adc r31,r27
 1642 00a6 86A5      		ldd r24,Z+46
 1643               	.LVL162:
 1644 00a8 8F70      		andi r24,lo8(15)
 1645 00aa 982D      		mov r25,r8
 1646               	.LVL163:
 1647 00ac 9295      		swap r25
 1648 00ae 907F      		andi r25,lo8(-16)
 1649 00b0 982B      		or r25,r24
 1650 00b2 00C0      		rjmp .L83
 1651               	.LVL164:
 1652               	.L82:
 1653 00b4 982D      		mov r25,r8
 1654               	.LVL165:
 1655               	.L83:
 1656 00b6 AC0F      		add r26,r28
 1657 00b8 BD1F      		adc r27,r29
 1658 00ba 9E96      		adiw r26,46
 1659 00bc 9C93      		st X,r25
 1660               	.LSM152:
 1661 00be 0F5F      		subi r16,lo8(-(1))
 1662 00c0 1F4F      		sbci r17,hi8(-(1))
 1663               	.LVL166:
 1664               	.LSM153:
 1665 00c2 81E0      		ldi r24,lo8(1)
 1666 00c4 8C83      		std Y+4,r24
 1667               	.LSM154:
 1668 00c6 A801      		movw r20,r16
 1669 00c8 452F      		mov r20,r21
 1670 00ca 5527      		clr r21
 1671 00cc 4695      		lsr r20
 1672 00ce 60E0      		ldi r22,lo8(0)
 1673 00d0 70E0      		ldi r23,hi8(0)
 1674 00d2 8E8D      		ldd r24,Y+30
 1675 00d4 9F8D      		ldd r25,Y+31
 1676 00d6 A8A1      		ldd r26,Y+32
 1677 00d8 B9A1      		ldd r27,Y+33
 1678 00da 480F      		add r20,r24
 1679 00dc 591F      		adc r21,r25
 1680 00de 6A1F      		adc r22,r26
 1681 00e0 7B1F      		adc r23,r27
 1682 00e2 CE01      		movw r24,r28
 1683 00e4 0E94 0000 		call move_window
 1684               	.LVL167:
 1685 00e8 282F      		mov r18,r24
 1686               	.LVL168:
 1687               	.LSM155:
 1688 00ea 8823      		tst r24
 1689 00ec 01F0      		breq .+2
 1690 00ee 00C0      		rjmp .L81
 1691               	.LVL169:
 1692               	.LSM156:
 1693 00f0 A801      		movw r20,r16
 1694 00f2 5170      		andi r21,hi8(511)
 1695               	.LSM157:
 1696 00f4 EF28      		or r14,r15
 1697 00f6 01F0      		breq .L84
 1698 00f8 64E0      		ldi r22,4
 1699 00fa B694      	1:	lsr r11
 1700 00fc A794      		ror r10
 1701 00fe 9794      		ror r9
 1702 0100 8794      		ror r8
 1703 0102 6A95      		dec r22
 1704 0104 01F4      		brne 1b
 1705 0106 682D      		mov r22,r8
 1706 0108 00C0      		rjmp .L85
 1707               	.L84:
 1708 010a FE01      		movw r30,r28
 1709 010c E40F      		add r30,r20
 1710 010e F51F      		adc r31,r21
 1711 0110 66A5      		ldd r22,Z+46
 1712 0112 607F      		andi r22,lo8(-16)
 1713 0114 BB27      		clr r27
 1714 0116 AB2D      		mov r26,r11
 1715 0118 9A2D      		mov r25,r10
 1716 011a 892D      		mov r24,r9
 1717               	.LVL170:
 1718 011c 8F70      		andi r24,lo8(15)
 1719 011e 682B      		or r22,r24
 1720               	.LVL171:
 1721               	.L85:
 1722 0120 4C0F      		add r20,r28
 1723 0122 5D1F      		adc r21,r29
 1724 0124 FA01      		movw r30,r20
 1725 0126 66A7      		std Z+46,r22
 1726 0128 00C0      		rjmp .L81
 1727               	.LVL172:
 1728               	.L79:
 1729               	.LSM158:
 1730 012a 452F      		mov r20,r21
 1731 012c 562F      		mov r21,r22
 1732 012e 672F      		mov r22,r23
 1733 0130 7727      		clr r23
 1734               	.LVL173:
 1735 0132 8E8D      		ldd r24,Y+30
 1736 0134 9F8D      		ldd r25,Y+31
 1737 0136 A8A1      		ldd r26,Y+32
 1738 0138 B9A1      		ldd r27,Y+33
 1739 013a 480F      		add r20,r24
 1740 013c 591F      		adc r21,r25
 1741 013e 6A1F      		adc r22,r26
 1742 0140 7B1F      		adc r23,r27
 1743 0142 CE01      		movw r24,r28
 1744 0144 0E94 0000 		call move_window
 1745 0148 282F      		mov r18,r24
 1746               	.LVL174:
 1747               	.LSM159:
 1748 014a 8823      		tst r24
 1749 014c 01F0      		breq .+2
 1750 014e 00C0      		rjmp .L81
 1751               	.LVL175:
 1752               	.LSM160:
 1753 0150 CC0C      		lsl r12
 1754 0152 DD1C      		rol r13
 1755 0154 EE1C      		rol r14
 1756 0156 FF1C      		rol r15
 1757               	.LVL176:
 1758 0158 F601      		movw r30,r12
 1759               	.LVL177:
 1760 015a F170      		andi r31,hi8(511)
 1761 015c BE96      		adiw r30,46
 1762 015e EC0F      		add r30,r28
 1763 0160 FD1F      		adc r31,r29
 1764 0162 9182      		std Z+1,r9
 1765 0164 8082      		st Z,r8
 1766 0166 00C0      		rjmp .L81
 1767               	.LVL178:
 1768               	.L80:
 1769               	.LSM161:
 1770 0168 07E0      		ldi r16,7
 1771 016a 7695      	1:	lsr r23
 1772 016c 6795      		ror r22
 1773 016e 5795      		ror r21
 1774 0170 4795      		ror r20
 1775 0172 0A95      		dec r16
 1776 0174 01F4      		brne 1b
 1777               	.LVL179:
 1778 0176 8E8D      		ldd r24,Y+30
 1779 0178 9F8D      		ldd r25,Y+31
 1780 017a A8A1      		ldd r26,Y+32
 1781 017c B9A1      		ldd r27,Y+33
 1782 017e 480F      		add r20,r24
 1783 0180 591F      		adc r21,r25
 1784 0182 6A1F      		adc r22,r26
 1785 0184 7B1F      		adc r23,r27
 1786 0186 CE01      		movw r24,r28
 1787 0188 0E94 0000 		call move_window
 1788 018c 282F      		mov r18,r24
 1789               	.LVL180:
 1790               	.LSM162:
 1791 018e 8823      		tst r24
 1792 0190 01F4      		brne .L81
 1793               	.LVL181:
 1794               	.LSM163:
 1795 0192 12E0      		ldi r17,2
 1796 0194 CC0C      	1:	lsl r12
 1797 0196 DD1C      		rol r13
 1798 0198 EE1C      		rol r14
 1799 019a FF1C      		rol r15
 1800 019c 1A95      		dec r17
 1801 019e 01F4      		brne 1b
 1802 01a0 F601      		movw r30,r12
 1803               	.LVL182:
 1804 01a2 F170      		andi r31,hi8(511)
 1805 01a4 BE96      		adiw r30,46
 1806 01a6 EC0F      		add r30,r28
 1807 01a8 FD1F      		adc r31,r29
 1808               	.LSM164:
 1809 01aa 8081      		ld r24,Z
 1810 01ac 9181      		ldd r25,Z+1
 1811 01ae A281      		ldd r26,Z+2
 1812 01b0 B381      		ldd r27,Z+3
 1813               	.LVL183:
 1814 01b2 8070      		andi r24,lo8(-268435456)
 1815 01b4 9070      		andi r25,hi8(-268435456)
 1816 01b6 A070      		andi r26,hlo8(-268435456)
 1817 01b8 B07F      		andi r27,hhi8(-268435456)
 1818 01ba 8829      		or r24,r8
 1819 01bc 9929      		or r25,r9
 1820 01be AA29      		or r26,r10
 1821 01c0 BB29      		or r27,r11
 1822 01c2 8083      		st Z,r24
 1823 01c4 9183      		std Z+1,r25
 1824 01c6 A283      		std Z+2,r26
 1825 01c8 B383      		std Z+3,r27
 1826               	.LVL184:
 1827               	.L81:
 1828               	.LSM165:
 1829 01ca 81E0      		ldi r24,lo8(1)
 1830 01cc 8C83      		std Y+4,r24
 1831 01ce 00C0      		rjmp .L86
 1832               	.LVL185:
 1833               	.L76:
 1834 01d0 22E0      		ldi r18,lo8(2)
 1835               	.LVL186:
 1836               	.L86:
 1837               	.LSM166:
 1838 01d2 822F      		mov r24,r18
 1839               	/* epilogue start */
 1840 01d4 DF91      		pop r29
 1841 01d6 CF91      		pop r28
 1842               	.LVL187:
 1843 01d8 1F91      		pop r17
 1844 01da 0F91      		pop r16
 1845               	.LVL188:
 1846 01dc FF90      		pop r15
 1847 01de EF90      		pop r14
 1848 01e0 DF90      		pop r13
 1849 01e2 CF90      		pop r12
 1850 01e4 BF90      		pop r11
 1851 01e6 AF90      		pop r10
 1852 01e8 9F90      		pop r9
 1853 01ea 8F90      		pop r8
 1854               	.LVL189:
 1855 01ec 0895      		ret
 1856               	.LFE140:
 1858               		.section	.text.get_fat,"ax",@progbits
 1859               	.global	get_fat
 1861               	get_fat:
 1862               	.LFB139:
 1863               	.LSM167:
 1864               	.LVL190:
 1865 0000 BF92      		push r11
 1866 0002 CF92      		push r12
 1867 0004 DF92      		push r13
 1868 0006 EF92      		push r14
 1869 0008 FF92      		push r15
 1870 000a 0F93      		push r16
 1871 000c 1F93      		push r17
 1872 000e CF93      		push r28
 1873 0010 DF93      		push r29
 1874               	/* prologue: function */
 1875               	/* frame size = 0 */
 1876 0012 6C01      		movw r12,r24
 1877 0014 7A01      		movw r14,r20
 1878 0016 8B01      		movw r16,r22
 1879               	.LSM168:
 1880 0018 4230      		cpi r20,lo8(2)
 1881 001a 5105      		cpc r21,__zero_reg__
 1882 001c 6105      		cpc r22,__zero_reg__
 1883 001e 7105      		cpc r23,__zero_reg__
 1884               	.LVL191:
 1885 0020 00F4      		brsh .+2
 1886 0022 00C0      		rjmp .L89
 1887 0024 F601      		movw r30,r12
 1888 0026 8689      		ldd r24,Z+22
 1889 0028 9789      		ldd r25,Z+23
 1890 002a A08D      		ldd r26,Z+24
 1891 002c B18D      		ldd r27,Z+25
 1892 002e 4817      		cp r20,r24
 1893 0030 5907      		cpc r21,r25
 1894 0032 6A07      		cpc r22,r26
 1895 0034 7B07      		cpc r23,r27
 1896 0036 00F0      		brlo .+2
 1897 0038 00C0      		rjmp .L89
 1898               	.LSM169:
 1899 003a 8081      		ld r24,Z
 1900 003c 8230      		cpi r24,lo8(2)
 1901 003e 01F4      		brne .+2
 1902 0040 00C0      		rjmp .L92
 1903 0042 8330      		cpi r24,lo8(3)
 1904 0044 01F4      		brne .+2
 1905 0046 00C0      		rjmp .L93
 1906 0048 8130      		cpi r24,lo8(1)
 1907 004a 01F0      		breq .+2
 1908 004c 00C0      		rjmp .L90
 1909               	.LSM170:
 1910 004e EA01      		movw r28,r20
 1911               	.LVL192:
 1912 0050 D695      		lsr r29
 1913 0052 C795      		ror r28
 1914               	.LVL193:
 1915 0054 C40F      		add r28,r20
 1916 0056 D51F      		adc r29,r21
 1917               	.LSM171:
 1918 0058 AE01      		movw r20,r28
 1919               	.LVL194:
 1920 005a 452F      		mov r20,r21
 1921 005c 5527      		clr r21
 1922 005e 4695      		lsr r20
 1923 0060 60E0      		ldi r22,lo8(0)
 1924 0062 70E0      		ldi r23,hi8(0)
 1925 0064 F601      		movw r30,r12
 1926 0066 868D      		ldd r24,Z+30
 1927 0068 978D      		ldd r25,Z+31
 1928 006a A0A1      		ldd r26,Z+32
 1929 006c B1A1      		ldd r27,Z+33
 1930 006e 480F      		add r20,r24
 1931 0070 591F      		adc r21,r25
 1932 0072 6A1F      		adc r22,r26
 1933 0074 7B1F      		adc r23,r27
 1934 0076 C601      		movw r24,r12
 1935 0078 0E94 0000 		call move_window
 1936 007c 8823      		tst r24
 1937 007e 01F0      		breq .+2
 1938 0080 00C0      		rjmp .L90
 1939               	.LSM172:
 1940 0082 FE01      		movw r30,r28
 1941 0084 F170      		andi r31,hi8(511)
 1942 0086 EC0D      		add r30,r12
 1943 0088 FD1D      		adc r31,r13
 1944 008a B6A4      		ldd r11,Z+46
 1945 008c 2196      		adiw r28,1
 1946               	.LVL195:
 1947               	.LSM173:
 1948 008e AE01      		movw r20,r28
 1949 0090 452F      		mov r20,r21
 1950 0092 5527      		clr r21
 1951 0094 4695      		lsr r20
 1952 0096 60E0      		ldi r22,lo8(0)
 1953 0098 70E0      		ldi r23,hi8(0)
 1954 009a F601      		movw r30,r12
 1955 009c 868D      		ldd r24,Z+30
 1956 009e 978D      		ldd r25,Z+31
 1957 00a0 A0A1      		ldd r26,Z+32
 1958 00a2 B1A1      		ldd r27,Z+33
 1959 00a4 480F      		add r20,r24
 1960 00a6 591F      		adc r21,r25
 1961 00a8 6A1F      		adc r22,r26
 1962 00aa 7B1F      		adc r23,r27
 1963 00ac C601      		movw r24,r12
 1964 00ae 0E94 0000 		call move_window
 1965 00b2 8823      		tst r24
 1966 00b4 01F0      		breq .+2
 1967 00b6 00C0      		rjmp .L90
 1968               	.LSM174:
 1969 00b8 6B2D      		mov r22,r11
 1970               	.LVL196:
 1971 00ba 70E0      		ldi r23,lo8(0)
 1972               	.LVL197:
 1973               	.LSM175:
 1974 00bc D170      		andi r29,hi8(511)
 1975 00be CC0D      		add r28,r12
 1976 00c0 DD1D      		adc r29,r13
 1977 00c2 9EA5      		ldd r25,Y+46
 1978 00c4 80E0      		ldi r24,lo8(0)
 1979 00c6 682B      		or r22,r24
 1980 00c8 792B      		or r23,r25
 1981               	.LVL198:
 1982               	.LSM176:
 1983 00ca C701      		movw r24,r14
 1984               	.LVL199:
 1985 00cc 8170      		andi r24,lo8(1)
 1986 00ce 9070      		andi r25,hi8(1)
 1987 00d0 892B      		or r24,r25
 1988 00d2 01F0      		breq .L94
 1989 00d4 34E0      		ldi r19,4
 1990 00d6 7695      	1:	lsr r23
 1991 00d8 6795      		ror r22
 1992 00da 3A95      		dec r19
 1993 00dc 01F4      		brne 1b
 1994 00de 9B01      		movw r18,r22
 1995 00e0 00C0      		rjmp .L97
 1996               	.L94:
 1997 00e2 9B01      		movw r18,r22
 1998 00e4 40E0      		ldi r20,lo8(0)
 1999 00e6 50E0      		ldi r21,hi8(0)
 2000 00e8 3F70      		andi r19,hi8(4095)
 2001 00ea 4070      		andi r20,hlo8(4095)
 2002 00ec 5070      		andi r21,hhi8(4095)
 2003 00ee 00C0      		rjmp .L95
 2004               	.LVL200:
 2005               	.L92:
 2006               	.LSM177:
 2007 00f0 452F      		mov r20,r21
 2008 00f2 562F      		mov r21,r22
 2009 00f4 672F      		mov r22,r23
 2010 00f6 7727      		clr r23
 2011               	.LVL201:
 2012 00f8 F601      		movw r30,r12
 2013 00fa 868D      		ldd r24,Z+30
 2014 00fc 978D      		ldd r25,Z+31
 2015 00fe A0A1      		ldd r26,Z+32
 2016 0100 B1A1      		ldd r27,Z+33
 2017 0102 480F      		add r20,r24
 2018 0104 591F      		adc r21,r25
 2019 0106 6A1F      		adc r22,r26
 2020 0108 7B1F      		adc r23,r27
 2021 010a C601      		movw r24,r12
 2022 010c 0E94 0000 		call move_window
 2023 0110 8823      		tst r24
 2024 0112 01F4      		brne .L90
 2025               	.LSM178:
 2026 0114 EE0C      		lsl r14
 2027 0116 FF1C      		rol r15
 2028 0118 001F      		rol r16
 2029 011a 111F      		rol r17
 2030 011c F701      		movw r30,r14
 2031               	.LVL202:
 2032 011e F170      		andi r31,hi8(511)
 2033 0120 EC0D      		add r30,r12
 2034 0122 FD1D      		adc r31,r13
 2035 0124 86A5      		ldd r24,Z+46
 2036 0126 97A5      		ldd r25,Z+47
 2037 0128 9C01      		movw r18,r24
 2038               	.LVL203:
 2039               	.L97:
 2040 012a 40E0      		ldi r20,lo8(0)
 2041 012c 50E0      		ldi r21,hi8(0)
 2042 012e 00C0      		rjmp .L95
 2043               	.LVL204:
 2044               	.L93:
 2045               	.LSM179:
 2046 0130 87E0      		ldi r24,7
 2047 0132 7695      	1:	lsr r23
 2048 0134 6795      		ror r22
 2049 0136 5795      		ror r21
 2050 0138 4795      		ror r20
 2051 013a 8A95      		dec r24
 2052 013c 01F4      		brne 1b
 2053               	.LVL205:
 2054 013e F601      		movw r30,r12
 2055 0140 868D      		ldd r24,Z+30
 2056 0142 978D      		ldd r25,Z+31
 2057 0144 A0A1      		ldd r26,Z+32
 2058 0146 B1A1      		ldd r27,Z+33
 2059 0148 480F      		add r20,r24
 2060 014a 591F      		adc r21,r25
 2061 014c 6A1F      		adc r22,r26
 2062 014e 7B1F      		adc r23,r27
 2063 0150 C601      		movw r24,r12
 2064 0152 0E94 0000 		call move_window
 2065 0156 8823      		tst r24
 2066 0158 01F4      		brne .L90
 2067               	.LSM180:
 2068 015a B2E0      		ldi r27,2
 2069 015c EE0C      	1:	lsl r14
 2070 015e FF1C      		rol r15
 2071 0160 001F      		rol r16
 2072 0162 111F      		rol r17
 2073 0164 BA95      		dec r27
 2074 0166 01F4      		brne 1b
 2075 0168 F701      		movw r30,r14
 2076               	.LVL206:
 2077 016a F170      		andi r31,hi8(511)
 2078 016c EC0D      		add r30,r12
 2079 016e FD1D      		adc r31,r13
 2080 0170 26A5      		ldd r18,Z+46
 2081 0172 37A5      		ldd r19,Z+47
 2082 0174 40A9      		ldd r20,Z+48
 2083 0176 51A9      		ldd r21,Z+49
 2084 0178 5F70      		andi r21,hhi8(268435455)
 2085 017a 00C0      		rjmp .L95
 2086               	.LVL207:
 2087               	.L89:
 2088 017c 21E0      		ldi r18,lo8(1)
 2089 017e 30E0      		ldi r19,hi8(1)
 2090 0180 40E0      		ldi r20,hlo8(1)
 2091 0182 50E0      		ldi r21,hhi8(1)
 2092 0184 00C0      		rjmp .L95
 2093               	.LVL208:
 2094               	.L90:
 2095 0186 2FEF      		ldi r18,lo8(-1)
 2096 0188 3FEF      		ldi r19,hi8(-1)
 2097 018a 4FEF      		ldi r20,hlo8(-1)
 2098 018c 5FEF      		ldi r21,hhi8(-1)
 2099               	.LVL209:
 2100               	.L95:
 2101               	.LSM181:
 2102 018e B901      		movw r22,r18
 2103               	.LVL210:
 2104 0190 CA01      		movw r24,r20
 2105               	/* epilogue start */
 2106 0192 DF91      		pop r29
 2107 0194 CF91      		pop r28
 2108               	.LVL211:
 2109 0196 1F91      		pop r17
 2110 0198 0F91      		pop r16
 2111 019a FF90      		pop r15
 2112 019c EF90      		pop r14
 2113               	.LVL212:
 2114 019e DF90      		pop r13
 2115 01a0 CF90      		pop r12
 2116               	.LVL213:
 2117 01a2 BF90      		pop r11
 2118 01a4 0895      		ret
 2119               	.LFE139:
 2121               		.section	.text.dir_sdi,"ax",@progbits
 2123               	dir_sdi:
 2124               	.LFB144:
 2125               	.LSM182:
 2126               	.LVL214:
 2127 0000 EF92      		push r14
 2128 0002 FF92      		push r15
 2129 0004 0F93      		push r16
 2130 0006 1F93      		push r17
 2131 0008 CF93      		push r28
 2132 000a DF93      		push r29
 2133               	/* prologue: function */
 2134               	/* frame size = 0 */
 2135 000c 8C01      		movw r16,r24
 2136 000e EB01      		movw r28,r22
 2137               	.LSM183:
 2138 0010 DC01      		movw r26,r24
 2139 0012 1596      		adiw r26,4+1
 2140 0014 7C93      		st X,r23
 2141 0016 6E93      		st -X,r22
 2142 0018 1497      		sbiw r26,4
 2143               	.LSM184:
 2144 001a 1696      		adiw r26,6
 2145 001c 4D91      		ld r20,X+
 2146 001e 5D91      		ld r21,X+
 2147 0020 6D91      		ld r22,X+
 2148 0022 7C91      		ld r23,X
 2149 0024 1997      		sbiw r26,6+3
 2150               	.LVL215:
 2151               	.LSM185:
 2152 0026 4130      		cpi r20,lo8(1)
 2153 0028 5105      		cpc r21,__zero_reg__
 2154 002a 6105      		cpc r22,__zero_reg__
 2155 002c 7105      		cpc r23,__zero_reg__
 2156 002e 01F4      		brne .+2
 2157 0030 00C0      		rjmp .L99
 2158 0032 ED91      		ld r30,X+
 2159 0034 FC91      		ld r31,X
 2160 0036 8689      		ldd r24,Z+22
 2161 0038 9789      		ldd r25,Z+23
 2162 003a A08D      		ldd r26,Z+24
 2163 003c B18D      		ldd r27,Z+25
 2164               	.LVL216:
 2165 003e 4817      		cp r20,r24
 2166 0040 5907      		cpc r21,r25
 2167 0042 6A07      		cpc r22,r26
 2168 0044 7B07      		cpc r23,r27
 2169 0046 00F0      		brlo .+2
 2170 0048 00C0      		rjmp .L99
 2171               	.LSM186:
 2172 004a 4115      		cp r20,__zero_reg__
 2173 004c 5105      		cpc r21,__zero_reg__
 2174 004e 6105      		cpc r22,__zero_reg__
 2175 0050 7105      		cpc r23,__zero_reg__
 2176 0052 01F4      		brne .L100
 2177 0054 8081      		ld r24,Z
 2178 0056 8330      		cpi r24,lo8(3)
 2179 0058 01F4      		brne .L101
 2180               	.LSM187:
 2181 005a 42A1      		ldd r20,Z+34
 2182 005c 53A1      		ldd r21,Z+35
 2183 005e 64A1      		ldd r22,Z+36
 2184 0060 75A1      		ldd r23,Z+37
 2185               	.LSM188:
 2186 0062 4115      		cp r20,__zero_reg__
 2187 0064 5105      		cpc r21,__zero_reg__
 2188 0066 6105      		cpc r22,__zero_reg__
 2189 0068 7105      		cpc r23,__zero_reg__
 2190 006a 01F4      		brne .L100
 2191               	.L101:
 2192               	.LSM189:
 2193 006c F801      		movw r30,r16
 2194 006e 1286      		std Z+10,__zero_reg__
 2195 0070 1386      		std Z+11,__zero_reg__
 2196 0072 1486      		std Z+12,__zero_reg__
 2197 0074 1586      		std Z+13,__zero_reg__
 2198               	.LSM190:
 2199 0076 0190      		ld __tmp_reg__,Z+
 2200 0078 F081      		ld r31,Z
 2201 007a E02D      		mov r30,__tmp_reg__
 2202 007c 8085      		ldd r24,Z+8
 2203 007e 9185      		ldd r25,Z+9
 2204 0080 C817      		cp r28,r24
 2205 0082 D907      		cpc r29,r25
 2206 0084 00F0      		brlo .+2
 2207 0086 00C0      		rjmp .L99
 2208               	.LVL217:
 2209               	.LSM191:
 2210 0088 CE01      		movw r24,r28
 2211 008a 24E0      		ldi r18,4
 2212 008c 9695      	1:	lsr r25
 2213 008e 8795      		ror r24
 2214 0090 2A95      		dec r18
 2215 0092 01F4      		brne 1b
 2216 0094 A0E0      		ldi r26,lo8(0)
 2217 0096 B0E0      		ldi r27,hi8(0)
 2218 0098 22A1      		ldd r18,Z+34
 2219 009a 33A1      		ldd r19,Z+35
 2220 009c 44A1      		ldd r20,Z+36
 2221 009e 55A1      		ldd r21,Z+37
 2222 00a0 820F      		add r24,r18
 2223 00a2 931F      		adc r25,r19
 2224 00a4 A41F      		adc r26,r20
 2225 00a6 B51F      		adc r27,r21
 2226 00a8 F801      		movw r30,r16
 2227 00aa 8687      		std Z+14,r24
 2228 00ac 9787      		std Z+15,r25
 2229 00ae A08B      		std Z+16,r26
 2230 00b0 B18B      		std Z+17,r27
 2231 00b2 00C0      		rjmp .L102
 2232               	.LVL218:
 2233               	.L100:
 2234               	.LSM192:
 2235 00b4 8281      		ldd r24,Z+2
 2236 00b6 E82E      		mov r14,r24
 2237               	.LVL219:
 2238 00b8 FF24      		clr r15
 2239               	.LVL220:
 2240 00ba B4E0      		ldi r27,4
 2241 00bc EE0C      	1:	lsl r14
 2242 00be FF1C      		rol r15
 2243 00c0 BA95      		dec r27
 2244 00c2 01F4      		brne 1b
 2245               	.LVL221:
 2246 00c4 00C0      		rjmp .L103
 2247               	.LVL222:
 2248               	.L106:
 2249               	.LSM193:
 2250 00c6 0E94 0000 		call get_fat
 2251               	.LVL223:
 2252 00ca AB01      		movw r20,r22
 2253 00cc BC01      		movw r22,r24
 2254               	.LVL224:
 2255               	.LSM194:
 2256 00ce 4F3F      		cpi r20,lo8(-1)
 2257 00d0 FFEF      		ldi r31,hi8(-1)
 2258 00d2 5F07      		cpc r21,r31
 2259 00d4 FFEF      		ldi r31,hlo8(-1)
 2260 00d6 6F07      		cpc r22,r31
 2261 00d8 FFEF      		ldi r31,hhi8(-1)
 2262 00da 7F07      		cpc r23,r31
 2263 00dc 01F4      		brne .L104
 2264 00de 81E0      		ldi r24,lo8(1)
 2265 00e0 00C0      		rjmp .L105
 2266               	.L104:
 2267               	.LSM195:
 2268 00e2 4230      		cpi r20,lo8(2)
 2269 00e4 5105      		cpc r21,__zero_reg__
 2270 00e6 6105      		cpc r22,__zero_reg__
 2271 00e8 7105      		cpc r23,__zero_reg__
 2272 00ea 00F4      		brsh .+2
 2273 00ec 00C0      		rjmp .L99
 2274 00ee D801      		movw r26,r16
 2275 00f0 ED91      		ld r30,X+
 2276 00f2 FC91      		ld r31,X
 2277 00f4 8689      		ldd r24,Z+22
 2278 00f6 9789      		ldd r25,Z+23
 2279 00f8 A08D      		ldd r26,Z+24
 2280 00fa B18D      		ldd r27,Z+25
 2281 00fc 4817      		cp r20,r24
 2282 00fe 5907      		cpc r21,r25
 2283 0100 6A07      		cpc r22,r26
 2284 0102 7B07      		cpc r23,r27
 2285 0104 00F4      		brsh .L99
 2286               	.LSM196:
 2287 0106 CE19      		sub r28,r14
 2288 0108 DF09      		sbc r29,r15
 2289               	.LVL225:
 2290               	.L103:
 2291 010a F801      		movw r30,r16
 2292 010c 8081      		ld r24,Z
 2293 010e 9181      		ldd r25,Z+1
 2294               	.LSM197:
 2295 0110 CE15      		cp r28,r14
 2296 0112 DF05      		cpc r29,r15
 2297 0114 00F4      		brsh .L106
 2298               	.LSM198:
 2299 0116 D801      		movw r26,r16
 2300 0118 1A96      		adiw r26,10
 2301 011a 4D93      		st X+,r20
 2302 011c 5D93      		st X+,r21
 2303 011e 6D93      		st X+,r22
 2304 0120 7C93      		st X,r23
 2305 0122 1D97      		sbiw r26,10+3
 2306               	.LSM199:
 2307 0124 0E94 0000 		call clust2sect
 2308               	.LVL226:
 2309 0128 9E01      		movw r18,r28
 2310 012a A4E0      		ldi r26,4
 2311 012c 3695      	1:	lsr r19
 2312 012e 2795      		ror r18
 2313 0130 AA95      		dec r26
 2314 0132 01F4      		brne 1b
 2315 0134 40E0      		ldi r20,lo8(0)
 2316 0136 50E0      		ldi r21,hi8(0)
 2317 0138 260F      		add r18,r22
 2318 013a 371F      		adc r19,r23
 2319 013c 481F      		adc r20,r24
 2320 013e 591F      		adc r21,r25
 2321 0140 F801      		movw r30,r16
 2322 0142 2687      		std Z+14,r18
 2323 0144 3787      		std Z+15,r19
 2324 0146 408B      		std Z+16,r20
 2325 0148 518B      		std Z+17,r21
 2326               	.LVL227:
 2327               	.L102:
 2328               	.LSM200:
 2329 014a CF70      		andi r28,lo8(15)
 2330 014c D070      		andi r29,hi8(15)
 2331 014e F5E0      		ldi r31,5
 2332 0150 CC0F      	1:	lsl r28
 2333 0152 DD1F      		rol r29
 2334 0154 FA95      		dec r31
 2335 0156 01F4      		brne 1b
 2336 0158 AE96      		adiw r28,46
 2337 015a D801      		movw r26,r16
 2338 015c 8D91      		ld r24,X+
 2339 015e 9C91      		ld r25,X
 2340 0160 1197      		sbiw r26,1
 2341 0162 8C0F      		add r24,r28
 2342 0164 9D1F      		adc r25,r29
 2343 0166 5396      		adiw r26,18+1
 2344 0168 9C93      		st X,r25
 2345 016a 8E93      		st -X,r24
 2346 016c 5297      		sbiw r26,18
 2347 016e 80E0      		ldi r24,lo8(0)
 2348 0170 00C0      		rjmp .L105
 2349               	.LVL228:
 2350               	.L99:
 2351               	.LSM201:
 2352 0172 82E0      		ldi r24,lo8(2)
 2353               	.L105:
 2354               	/* epilogue start */
 2355               	.LSM202:
 2356 0174 DF91      		pop r29
 2357 0176 CF91      		pop r28
 2358               	.LVL229:
 2359 0178 1F91      		pop r17
 2360 017a 0F91      		pop r16
 2361               	.LVL230:
 2362 017c FF90      		pop r15
 2363               	.LVL231:
 2364 017e EF90      		pop r14
 2365               	.LVL232:
 2366 0180 0895      		ret
 2367               	.LFE144:
 2369               		.section	.text.create_chain,"ax",@progbits
 2371               	create_chain:
 2372               	.LFB142:
 2373               	.LSM203:
 2374               	.LVL233:
 2375 0000 4F92      		push r4
 2376 0002 5F92      		push r5
 2377 0004 6F92      		push r6
 2378 0006 7F92      		push r7
 2379 0008 8F92      		push r8
 2380 000a 9F92      		push r9
 2381 000c AF92      		push r10
 2382 000e BF92      		push r11
 2383 0010 CF92      		push r12
 2384 0012 DF92      		push r13
 2385 0014 EF92      		push r14
 2386 0016 FF92      		push r15
 2387 0018 0F93      		push r16
 2388 001a 1F93      		push r17
 2389 001c CF93      		push r28
 2390 001e DF93      		push r29
 2391               	/* prologue: function */
 2392               	/* frame size = 0 */
 2393 0020 EC01      		movw r28,r24
 2394 0022 2A01      		movw r4,r20
 2395 0024 3B01      		movw r6,r22
 2396               	.LSM204:
 2397 0026 4115      		cp r20,__zero_reg__
 2398 0028 5105      		cpc r21,__zero_reg__
 2399 002a 6105      		cpc r22,__zero_reg__
 2400 002c 7105      		cpc r23,__zero_reg__
 2401 002e 01F4      		brne .L109
 2402               	.LVL234:
 2403               	.LSM205:
 2404 0030 8A84      		ldd r8,Y+10
 2405 0032 9B84      		ldd r9,Y+11
 2406 0034 AC84      		ldd r10,Y+12
 2407 0036 BD84      		ldd r11,Y+13
 2408               	.LVL235:
 2409               	.LSM206:
 2410 0038 8114      		cp r8,__zero_reg__
 2411 003a 9104      		cpc r9,__zero_reg__
 2412 003c A104      		cpc r10,__zero_reg__
 2413 003e B104      		cpc r11,__zero_reg__
 2414 0040 01F0      		breq .L110
 2415 0042 8E89      		ldd r24,Y+22
 2416 0044 9F89      		ldd r25,Y+23
 2417 0046 A88D      		ldd r26,Y+24
 2418 0048 B98D      		ldd r27,Y+25
 2419 004a 8816      		cp r8,r24
 2420 004c 9906      		cpc r9,r25
 2421 004e AA06      		cpc r10,r26
 2422 0050 BB06      		cpc r11,r27
 2423 0052 00F4      		brsh .L110
 2424 0054 00C0      		rjmp .L111
 2425               	.LVL236:
 2426               	.L109:
 2427               	.LSM207:
 2428 0056 0E94 0000 		call get_fat
 2429               	.LVL237:
 2430 005a 9B01      		movw r18,r22
 2431 005c AC01      		movw r20,r24
 2432               	.LVL238:
 2433               	.LSM208:
 2434 005e 6230      		cpi r22,lo8(2)
 2435 0060 7105      		cpc r23,__zero_reg__
 2436 0062 8105      		cpc r24,__zero_reg__
 2437 0064 9105      		cpc r25,__zero_reg__
 2438 0066 00F4      		brsh .L112
 2439               	.LVL239:
 2440 0068 21E0      		ldi r18,lo8(1)
 2441 006a 30E0      		ldi r19,hi8(1)
 2442 006c 40E0      		ldi r20,hlo8(1)
 2443 006e 50E0      		ldi r21,hhi8(1)
 2444               	.LVL240:
 2445 0070 00C0      		rjmp .L113
 2446               	.LVL241:
 2447               	.L112:
 2448               	.LSM209:
 2449 0072 8E89      		ldd r24,Y+22
 2450 0074 9F89      		ldd r25,Y+23
 2451 0076 A88D      		ldd r26,Y+24
 2452 0078 B98D      		ldd r27,Y+25
 2453 007a 2817      		cp r18,r24
 2454 007c 3907      		cpc r19,r25
 2455 007e 4A07      		cpc r20,r26
 2456 0080 5B07      		cpc r21,r27
 2457 0082 00F4      		brsh .+2
 2458 0084 00C0      		rjmp .L113
 2459               	.LVL242:
 2460 0086 5301      		movw r10,r6
 2461 0088 4201      		movw r8,r4
 2462               	.LVL243:
 2463 008a 00C0      		rjmp .L111
 2464               	.LVL244:
 2465               	.L110:
 2466 008c 41E0      		ldi r20,lo8(1)
 2467 008e 842E      		mov r8,r20
 2468 0090 912C      		mov r9,__zero_reg__
 2469 0092 A12C      		mov r10,__zero_reg__
 2470 0094 B12C      		mov r11,__zero_reg__
 2471               	.LVL245:
 2472               	.L111:
 2473 0096 7501      		movw r14,r10
 2474 0098 6401      		movw r12,r8
 2475               	.LVL246:
 2476               	.L117:
 2477               	.LSM210:
 2478 009a 0894      		sec
 2479 009c C11C      		adc r12,__zero_reg__
 2480 009e D11C      		adc r13,__zero_reg__
 2481 00a0 E11C      		adc r14,__zero_reg__
 2482 00a2 F11C      		adc r15,__zero_reg__
 2483               	.LSM211:
 2484 00a4 8E89      		ldd r24,Y+22
 2485 00a6 9F89      		ldd r25,Y+23
 2486 00a8 A88D      		ldd r26,Y+24
 2487 00aa B98D      		ldd r27,Y+25
 2488 00ac C816      		cp r12,r24
 2489 00ae D906      		cpc r13,r25
 2490 00b0 EA06      		cpc r14,r26
 2491 00b2 FB06      		cpc r15,r27
 2492 00b4 00F0      		brlo .L114
 2493               	.LSM212:
 2494 00b6 22E0      		ldi r18,lo8(2)
 2495 00b8 8216      		cp r8,r18
 2496 00ba 9104      		cpc r9,__zero_reg__
 2497 00bc A104      		cpc r10,__zero_reg__
 2498 00be B104      		cpc r11,__zero_reg__
 2499               	.LVL247:
 2500 00c0 00F4      		brsh .+2
 2501 00c2 00C0      		rjmp .L115
 2502 00c4 32E0      		ldi r19,lo8(2)
 2503 00c6 C32E      		mov r12,r19
 2504 00c8 D12C      		mov r13,__zero_reg__
 2505 00ca E12C      		mov r14,__zero_reg__
 2506 00cc F12C      		mov r15,__zero_reg__
 2507               	.LVL248:
 2508               	.L114:
 2509               	.LSM213:
 2510 00ce CE01      		movw r24,r28
 2511 00d0 B701      		movw r22,r14
 2512 00d2 A601      		movw r20,r12
 2513 00d4 0E94 0000 		call get_fat
 2514               	.LVL249:
 2515 00d8 9B01      		movw r18,r22
 2516 00da AC01      		movw r20,r24
 2517               	.LVL250:
 2518               	.LSM214:
 2519 00dc 6115      		cp r22,__zero_reg__
 2520 00de 7105      		cpc r23,__zero_reg__
 2521 00e0 8105      		cpc r24,__zero_reg__
 2522 00e2 9105      		cpc r25,__zero_reg__
 2523 00e4 01F0      		breq .L116
 2524               	.LVL251:
 2525               	.LSM215:
 2526 00e6 2F3F      		cpi r18,lo8(-1)
 2527 00e8 8FEF      		ldi r24,hi8(-1)
 2528 00ea 3807      		cpc r19,r24
 2529 00ec 8FEF      		ldi r24,hlo8(-1)
 2530 00ee 4807      		cpc r20,r24
 2531 00f0 8FEF      		ldi r24,hhi8(-1)
 2532 00f2 5807      		cpc r21,r24
 2533 00f4 01F4      		brne .+2
 2534 00f6 00C0      		rjmp .L113
 2535               	.LVL252:
 2536 00f8 2130      		cpi r18,lo8(1)
 2537 00fa 3105      		cpc r19,__zero_reg__
 2538 00fc 4105      		cpc r20,__zero_reg__
 2539 00fe 5105      		cpc r21,__zero_reg__
 2540 0100 01F4      		brne .+2
 2541 0102 00C0      		rjmp .L113
 2542               	.LSM216:
 2543 0104 C814      		cp r12,r8
 2544 0106 D904      		cpc r13,r9
 2545 0108 EA04      		cpc r14,r10
 2546 010a FB04      		cpc r15,r11
 2547 010c 01F4      		brne .L117
 2548 010e 00C0      		rjmp .L115
 2549               	.LVL253:
 2550               	.L116:
 2551 0110 BC2C      		mov r11,r12
 2552 0112 AD2C      		mov r10,r13
 2553               	.LVL254:
 2554 0114 9E2C      		mov r9,r14
 2555               	.LVL255:
 2556 0116 8F2C      		mov r8,r15
 2557               	.LVL256:
 2558               	.LSM217:
 2559 0118 CE01      		movw r24,r28
 2560 011a A601      		movw r20,r12
 2561               	.LVL257:
 2562 011c B701      		movw r22,r14
 2563               	.LVL258:
 2564 011e 0FEF      		ldi r16,lo8(268435455)
 2565 0120 1FEF      		ldi r17,hi8(268435455)
 2566 0122 2FEF      		ldi r18,hlo8(268435455)
 2567 0124 3FE0      		ldi r19,hhi8(268435455)
 2568 0126 0E94 0000 		call put_fat
 2569               	.LVL259:
 2570 012a 8823      		tst r24
 2571 012c 01F4      		brne .L118
 2572               	.LVL260:
 2573               	.LSM218:
 2574 012e 4114      		cp r4,__zero_reg__
 2575 0130 5104      		cpc r5,__zero_reg__
 2576 0132 6104      		cpc r6,__zero_reg__
 2577 0134 7104      		cpc r7,__zero_reg__
 2578 0136 01F0      		breq .L119
 2579               	.LSM219:
 2580 0138 CE01      		movw r24,r28
 2581 013a B301      		movw r22,r6
 2582 013c A201      		movw r20,r4
 2583 013e 8601      		movw r16,r12
 2584 0140 9701      		movw r18,r14
 2585 0142 0E94 0000 		call put_fat
 2586 0146 8823      		tst r24
 2587 0148 01F4      		brne .L118
 2588               	.L119:
 2589               	.LSM220:
 2590 014a BA86      		std Y+10,r11
 2591 014c AB86      		std Y+11,r10
 2592 014e 9C86      		std Y+12,r9
 2593 0150 8D86      		std Y+13,r8
 2594               	.LSM221:
 2595 0152 8E85      		ldd r24,Y+14
 2596 0154 9F85      		ldd r25,Y+15
 2597 0156 A889      		ldd r26,Y+16
 2598 0158 B989      		ldd r27,Y+17
 2599 015a 8F3F      		cpi r24,lo8(-1)
 2600 015c 2FEF      		ldi r18,hi8(-1)
 2601 015e 9207      		cpc r25,r18
 2602 0160 2FEF      		ldi r18,hlo8(-1)
 2603 0162 A207      		cpc r26,r18
 2604 0164 2FEF      		ldi r18,hhi8(-1)
 2605 0166 B207      		cpc r27,r18
 2606 0168 01F0      		breq .L122
 2607               	.L120:
 2608               	.LSM222:
 2609 016a 0197      		sbiw r24,1
 2610 016c A109      		sbc r26,__zero_reg__
 2611 016e B109      		sbc r27,__zero_reg__
 2612 0170 8E87      		std Y+14,r24
 2613 0172 9F87      		std Y+15,r25
 2614 0174 A88B      		std Y+16,r26
 2615 0176 B98B      		std Y+17,r27
 2616               	.LSM223:
 2617 0178 81E0      		ldi r24,lo8(1)
 2618 017a 8D83      		std Y+5,r24
 2619               	.L122:
 2620 017c A701      		movw r20,r14
 2621 017e 9601      		movw r18,r12
 2622               	.LVL261:
 2623 0180 00C0      		rjmp .L113
 2624               	.LVL262:
 2625               	.L115:
 2626 0182 20E0      		ldi r18,lo8(0)
 2627 0184 30E0      		ldi r19,hi8(0)
 2628 0186 40E0      		ldi r20,hlo8(0)
 2629 0188 50E0      		ldi r21,hhi8(0)
 2630               	.LVL263:
 2631 018a 00C0      		rjmp .L113
 2632               	.LVL264:
 2633               	.L118:
 2634 018c 2FEF      		ldi r18,lo8(-1)
 2635 018e 3FEF      		ldi r19,hi8(-1)
 2636 0190 4FEF      		ldi r20,hlo8(-1)
 2637 0192 5FEF      		ldi r21,hhi8(-1)
 2638               	.LVL265:
 2639               	.L113:
 2640               	.LSM224:
 2641 0194 B901      		movw r22,r18
 2642               	.LVL266:
 2643 0196 CA01      		movw r24,r20
 2644               	/* epilogue start */
 2645 0198 DF91      		pop r29
 2646 019a CF91      		pop r28
 2647               	.LVL267:
 2648 019c 1F91      		pop r17
 2649 019e 0F91      		pop r16
 2650 01a0 FF90      		pop r15
 2651 01a2 EF90      		pop r14
 2652 01a4 DF90      		pop r13
 2653 01a6 CF90      		pop r12
 2654               	.LVL268:
 2655 01a8 BF90      		pop r11
 2656               	.LVL269:
 2657 01aa AF90      		pop r10
 2658               	.LVL270:
 2659 01ac 9F90      		pop r9
 2660               	.LVL271:
 2661 01ae 8F90      		pop r8
 2662               	.LVL272:
 2663 01b0 7F90      		pop r7
 2664 01b2 6F90      		pop r6
 2665 01b4 5F90      		pop r5
 2666 01b6 4F90      		pop r4
 2667               	.LVL273:
 2668 01b8 0895      		ret
 2669               	.LFE142:
 2671               		.section	.text.remove_chain,"ax",@progbits
 2673               	remove_chain:
 2674               	.LFB141:
 2675               	.LSM225:
 2676               	.LVL274:
 2677 0000 9F92      		push r9
 2678 0002 AF92      		push r10
 2679 0004 BF92      		push r11
 2680 0006 CF92      		push r12
 2681 0008 DF92      		push r13
 2682 000a EF92      		push r14
 2683 000c FF92      		push r15
 2684 000e 0F93      		push r16
 2685 0010 1F93      		push r17
 2686 0012 CF93      		push r28
 2687 0014 DF93      		push r29
 2688               	/* prologue: function */
 2689               	/* frame size = 0 */
 2690 0016 EC01      		movw r28,r24
 2691 0018 7A01      		movw r14,r20
 2692 001a 8B01      		movw r16,r22
 2693               	.LSM226:
 2694 001c 4230      		cpi r20,lo8(2)
 2695 001e 5105      		cpc r21,__zero_reg__
 2696 0020 6105      		cpc r22,__zero_reg__
 2697 0022 7105      		cpc r23,__zero_reg__
 2698 0024 00F4      		brsh .+2
 2699 0026 00C0      		rjmp .L124
 2700               	.LVL275:
 2701 0028 8E89      		ldd r24,Y+22
 2702 002a 9F89      		ldd r25,Y+23
 2703 002c A88D      		ldd r26,Y+24
 2704 002e B98D      		ldd r27,Y+25
 2705 0030 4817      		cp r20,r24
 2706 0032 5907      		cpc r21,r25
 2707 0034 6A07      		cpc r22,r26
 2708 0036 7B07      		cpc r23,r27
 2709 0038 00F4      		brsh .+2
 2710 003a 00C0      		rjmp .L132
 2711 003c 00C0      		rjmp .L124
 2712               	.LVL276:
 2713               	.L130:
 2714               	.LSM227:
 2715 003e CE01      		movw r24,r28
 2716 0040 B801      		movw r22,r16
 2717 0042 A701      		movw r20,r14
 2718 0044 0E94 0000 		call get_fat
 2719 0048 5B01      		movw r10,r22
 2720 004a 6C01      		movw r12,r24
 2721               	.LSM228:
 2722 004c 6115      		cp r22,__zero_reg__
 2723 004e 7105      		cpc r23,__zero_reg__
 2724 0050 8105      		cpc r24,__zero_reg__
 2725 0052 9105      		cpc r25,__zero_reg__
 2726 0054 01F4      		brne .+2
 2727 0056 00C0      		rjmp .L126
 2728               	.LVL277:
 2729               	.LSM229:
 2730 0058 81E0      		ldi r24,lo8(1)
 2731 005a A816      		cp r10,r24
 2732 005c B104      		cpc r11,__zero_reg__
 2733 005e C104      		cpc r12,__zero_reg__
 2734 0060 D104      		cpc r13,__zero_reg__
 2735 0062 01F0      		breq .L124
 2736               	.LVL278:
 2737               	.LSM230:
 2738 0064 2FEF      		ldi r18,lo8(-1)
 2739 0066 A216      		cp r10,r18
 2740 0068 2FEF      		ldi r18,hi8(-1)
 2741 006a B206      		cpc r11,r18
 2742 006c 2FEF      		ldi r18,hlo8(-1)
 2743 006e C206      		cpc r12,r18
 2744 0070 2FEF      		ldi r18,hhi8(-1)
 2745 0072 D206      		cpc r13,r18
 2746 0074 01F4      		brne .L127
 2747 0076 81E0      		ldi r24,lo8(1)
 2748               	.LVL279:
 2749 0078 00C0      		rjmp .L128
 2750               	.LVL280:
 2751               	.L127:
 2752               	.LSM231:
 2753 007a CE01      		movw r24,r28
 2754 007c B801      		movw r22,r16
 2755 007e A701      		movw r20,r14
 2756 0080 00E0      		ldi r16,lo8(0)
 2757 0082 10E0      		ldi r17,hi8(0)
 2758 0084 20E0      		ldi r18,hlo8(0)
 2759 0086 30E0      		ldi r19,hhi8(0)
 2760 0088 0E94 0000 		call put_fat
 2761               	.LSM232:
 2762 008c 8823      		tst r24
 2763               	.LVL281:
 2764 008e 01F4      		brne .L128
 2765               	.LSM233:
 2766 0090 8E85      		ldd r24,Y+14
 2767 0092 9F85      		ldd r25,Y+15
 2768 0094 A889      		ldd r26,Y+16
 2769 0096 B989      		ldd r27,Y+17
 2770               	.LVL282:
 2771 0098 8F3F      		cpi r24,lo8(-1)
 2772 009a 2FEF      		ldi r18,hi8(-1)
 2773 009c 9207      		cpc r25,r18
 2774 009e 2FEF      		ldi r18,hlo8(-1)
 2775 00a0 A207      		cpc r26,r18
 2776 00a2 2FEF      		ldi r18,hhi8(-1)
 2777 00a4 B207      		cpc r27,r18
 2778 00a6 01F0      		breq .L129
 2779               	.LSM234:
 2780 00a8 0196      		adiw r24,1
 2781 00aa A11D      		adc r26,__zero_reg__
 2782 00ac B11D      		adc r27,__zero_reg__
 2783 00ae 8E87      		std Y+14,r24
 2784 00b0 9F87      		std Y+15,r25
 2785 00b2 A88B      		std Y+16,r26
 2786 00b4 B98B      		std Y+17,r27
 2787               	.LSM235:
 2788 00b6 9D82      		std Y+5,r9
 2789               	.L129:
 2790 00b8 8601      		movw r16,r12
 2791 00ba 7501      		movw r14,r10
 2792 00bc 00C0      		rjmp .L133
 2793               	.LVL283:
 2794               	.L132:
 2795 00be 9924      		clr r9
 2796 00c0 9394      		inc r9
 2797               	.LVL284:
 2798               	.L133:
 2799               	.LSM236:
 2800 00c2 8E89      		ldd r24,Y+22
 2801 00c4 9F89      		ldd r25,Y+23
 2802 00c6 A88D      		ldd r26,Y+24
 2803 00c8 B98D      		ldd r27,Y+25
 2804 00ca E816      		cp r14,r24
 2805 00cc F906      		cpc r15,r25
 2806 00ce 0A07      		cpc r16,r26
 2807 00d0 1B07      		cpc r17,r27
 2808 00d2 00F4      		brsh .+2
 2809 00d4 00C0      		rjmp .L130
 2810 00d6 00C0      		rjmp .L126
 2811               	.LVL285:
 2812               	.L124:
 2813 00d8 82E0      		ldi r24,lo8(2)
 2814               	.LVL286:
 2815 00da 00C0      		rjmp .L128
 2816               	.LVL287:
 2817               	.L126:
 2818 00dc 80E0      		ldi r24,lo8(0)
 2819               	.LVL288:
 2820               	.L128:
 2821               	.LVL289:
 2822               	/* epilogue start */
 2823               	.LSM237:
 2824 00de DF91      		pop r29
 2825 00e0 CF91      		pop r28
 2826               	.LVL290:
 2827 00e2 1F91      		pop r17
 2828 00e4 0F91      		pop r16
 2829 00e6 FF90      		pop r15
 2830 00e8 EF90      		pop r14
 2831               	.LVL291:
 2832 00ea DF90      		pop r13
 2833 00ec CF90      		pop r12
 2834 00ee BF90      		pop r11
 2835 00f0 AF90      		pop r10
 2836               	.LVL292:
 2837 00f2 9F90      		pop r9
 2838 00f4 0895      		ret
 2839               	.LFE141:
 2841               		.section	.text.f_truncate,"ax",@progbits
 2842               	.global	f_truncate
 2844               	f_truncate:
 2845               	.LFB167:
 2846               	.LSM238:
 2847               	.LVL293:
 2848 0000 CF92      		push r12
 2849 0002 DF92      		push r13
 2850 0004 EF92      		push r14
 2851 0006 FF92      		push r15
 2852 0008 0F93      		push r16
 2853 000a 1F93      		push r17
 2854 000c CF93      		push r28
 2855 000e DF93      		push r29
 2856               	/* prologue: function */
 2857               	/* frame size = 0 */
 2858 0010 EC01      		movw r28,r24
 2859               	.LSM239:
 2860 0012 6A81      		ldd r22,Y+2
 2861 0014 7B81      		ldd r23,Y+3
 2862 0016 8881      		ld r24,Y
 2863 0018 9981      		ldd r25,Y+1
 2864               	.LVL294:
 2865 001a 0E94 0000 		call validate
 2866 001e 182F      		mov r17,r24
 2867               	.LVL295:
 2868               	.LSM240:
 2869 0020 8823      		tst r24
 2870 0022 01F0      		breq .+2
 2871 0024 00C0      		rjmp .L135
 2872               	.LVL296:
 2873               	.LSM241:
 2874 0026 6C81      		ldd r22,Y+4
 2875 0028 67FF      		sbrs r22,7
 2876 002a 00C0      		rjmp .L136
 2877 002c 12E0      		ldi r17,lo8(2)
 2878               	.LVL297:
 2879 002e 00C0      		rjmp .L135
 2880               	.LVL298:
 2881               	.L136:
 2882               	.LSM242:
 2883 0030 61FF      		sbrs r22,1
 2884 0032 00C0      		rjmp .L137
 2885               	.LSM243:
 2886 0034 2E81      		ldd r18,Y+6
 2887 0036 3F81      		ldd r19,Y+7
 2888 0038 4885      		ldd r20,Y+8
 2889 003a 5985      		ldd r21,Y+9
 2890 003c 8A85      		ldd r24,Y+10
 2891 003e 9B85      		ldd r25,Y+11
 2892 0040 AC85      		ldd r26,Y+12
 2893 0042 BD85      		ldd r27,Y+13
 2894               	.LVL299:
 2895 0044 2817      		cp r18,r24
 2896 0046 3907      		cpc r19,r25
 2897 0048 4A07      		cpc r20,r26
 2898 004a 5B07      		cpc r21,r27
 2899 004c 00F0      		brlo .+2
 2900 004e 00C0      		rjmp .L135
 2901               	.LSM244:
 2902 0050 2A87      		std Y+10,r18
 2903 0052 3B87      		std Y+11,r19
 2904 0054 4C87      		std Y+12,r20
 2905 0056 5D87      		std Y+13,r21
 2906               	.LSM245:
 2907 0058 6062      		ori r22,lo8(32)
 2908 005a 6C83      		std Y+4,r22
 2909 005c 8881      		ld r24,Y
 2910 005e 9981      		ldd r25,Y+1
 2911               	.LSM246:
 2912 0060 2115      		cp r18,__zero_reg__
 2913 0062 3105      		cpc r19,__zero_reg__
 2914 0064 4105      		cpc r20,__zero_reg__
 2915 0066 5105      		cpc r21,__zero_reg__
 2916 0068 01F4      		brne .L138
 2917               	.LSM247:
 2918 006a 4E85      		ldd r20,Y+14
 2919 006c 5F85      		ldd r21,Y+15
 2920 006e 6889      		ldd r22,Y+16
 2921 0070 7989      		ldd r23,Y+17
 2922 0072 0E94 0000 		call remove_chain
 2923 0076 182F      		mov r17,r24
 2924               	.LSM248:
 2925 0078 1E86      		std Y+14,__zero_reg__
 2926 007a 1F86      		std Y+15,__zero_reg__
 2927 007c 188A      		std Y+16,__zero_reg__
 2928 007e 198A      		std Y+17,__zero_reg__
 2929 0080 00C0      		rjmp .L139
 2930               	.L138:
 2931               	.LSM249:
 2932 0082 4A89      		ldd r20,Y+18
 2933 0084 5B89      		ldd r21,Y+19
 2934 0086 6C89      		ldd r22,Y+20
 2935 0088 7D89      		ldd r23,Y+21
 2936 008a 0E94 0000 		call get_fat
 2937 008e 6B01      		movw r12,r22
 2938 0090 7C01      		movw r14,r24
 2939               	.LVL300:
 2940               	.LSM250:
 2941 0092 8FEF      		ldi r24,lo8(-1)
 2942 0094 C816      		cp r12,r24
 2943 0096 8FEF      		ldi r24,hi8(-1)
 2944 0098 D806      		cpc r13,r24
 2945 009a 8FEF      		ldi r24,hlo8(-1)
 2946 009c E806      		cpc r14,r24
 2947 009e 8FEF      		ldi r24,hhi8(-1)
 2948 00a0 F806      		cpc r15,r24
 2949 00a2 01F4      		brne .L140
 2950 00a4 11E0      		ldi r17,lo8(1)
 2951 00a6 00C0      		rjmp .L141
 2952               	.L140:
 2953               	.LSM251:
 2954 00a8 81E0      		ldi r24,lo8(1)
 2955 00aa C816      		cp r12,r24
 2956 00ac D104      		cpc r13,__zero_reg__
 2957 00ae E104      		cpc r14,__zero_reg__
 2958 00b0 F104      		cpc r15,__zero_reg__
 2959 00b2 01F0      		breq .L142
 2960               	.LSM252:
 2961 00b4 E881      		ld r30,Y
 2962 00b6 F981      		ldd r31,Y+1
 2963 00b8 8689      		ldd r24,Z+22
 2964 00ba 9789      		ldd r25,Z+23
 2965 00bc A08D      		ldd r26,Z+24
 2966 00be B18D      		ldd r27,Z+25
 2967 00c0 C816      		cp r12,r24
 2968 00c2 D906      		cpc r13,r25
 2969 00c4 EA06      		cpc r14,r26
 2970 00c6 FB06      		cpc r15,r27
 2971 00c8 00F4      		brsh .L135
 2972               	.LSM253:
 2973 00ca 4A89      		ldd r20,Y+18
 2974 00cc 5B89      		ldd r21,Y+19
 2975 00ce 6C89      		ldd r22,Y+20
 2976 00d0 7D89      		ldd r23,Y+21
 2977 00d2 CF01      		movw r24,r30
 2978 00d4 0FEF      		ldi r16,lo8(268435455)
 2979 00d6 1FEF      		ldi r17,hi8(268435455)
 2980 00d8 2FEF      		ldi r18,hlo8(268435455)
 2981 00da 3FE0      		ldi r19,hhi8(268435455)
 2982 00dc 0E94 0000 		call put_fat
 2983 00e0 182F      		mov r17,r24
 2984               	.LSM254:
 2985 00e2 8823      		tst r24
 2986 00e4 01F4      		brne .L141
 2987               	.LVL301:
 2988 00e6 8881      		ld r24,Y
 2989 00e8 9981      		ldd r25,Y+1
 2990               	.LVL302:
 2991 00ea B701      		movw r22,r14
 2992 00ec A601      		movw r20,r12
 2993 00ee 0E94 0000 		call remove_chain
 2994 00f2 182F      		mov r17,r24
 2995               	.L139:
 2996               	.LSM255:
 2997 00f4 1123      		tst r17
 2998 00f6 01F0      		breq .L135
 2999               	.LVL303:
 3000               	.L141:
 3001 00f8 8C81      		ldd r24,Y+4
 3002 00fa 8068      		ori r24,lo8(-128)
 3003 00fc 8C83      		std Y+4,r24
 3004               	.LVL304:
 3005               	.L135:
 3006               	.LSM256:
 3007 00fe 812F      		mov r24,r17
 3008               	/* epilogue start */
 3009 0100 DF91      		pop r29
 3010 0102 CF91      		pop r28
 3011               	.LVL305:
 3012 0104 1F91      		pop r17
 3013               	.LVL306:
 3014 0106 0F91      		pop r16
 3015 0108 FF90      		pop r15
 3016 010a EF90      		pop r14
 3017 010c DF90      		pop r13
 3018 010e CF90      		pop r12
 3019               	.LVL307:
 3020 0110 0895      		ret
 3021               	.LVL308:
 3022               	.L137:
 3023               	.LSM257:
 3024 0112 17E0      		ldi r17,lo8(7)
 3025               	.LVL309:
 3026 0114 00C0      		rjmp .L135
 3027               	.LVL310:
 3028               	.L142:
 3029 0116 12E0      		ldi r17,lo8(2)
 3030 0118 00C0      		rjmp .L141
 3031               	.LFE167:
 3033               		.section	.text.f_lseek,"ax",@progbits
 3034               	.global	f_lseek
 3036               	f_lseek:
 3037               	.LFB162:
 3038               	.LSM258:
 3039               	.LVL311:
 3040 0000 2F92      		push r2
 3041 0002 3F92      		push r3
 3042 0004 4F92      		push r4
 3043 0006 5F92      		push r5
 3044 0008 6F92      		push r6
 3045 000a 7F92      		push r7
 3046 000c 8F92      		push r8
 3047 000e 9F92      		push r9
 3048 0010 AF92      		push r10
 3049 0012 BF92      		push r11
 3050 0014 CF92      		push r12
 3051 0016 DF92      		push r13
 3052 0018 EF92      		push r14
 3053 001a FF92      		push r15
 3054 001c 0F93      		push r16
 3055 001e 1F93      		push r17
 3056 0020 DF93      		push r29
 3057 0022 CF93      		push r28
 3058 0024 00D0      		rcall .
 3059 0026 00D0      		rcall .
 3060 0028 0F92      		push __tmp_reg__
 3061 002a CDB7      		in r28,__SP_L__
 3062 002c DEB7      		in r29,__SP_H__
 3063               	/* prologue: function */
 3064               	/* frame size = 5 */
 3065 002e 9D83      		std Y+5,r25
 3066 0030 8C83      		std Y+4,r24
 3067 0032 3A01      		movw r6,r20
 3068 0034 4B01      		movw r8,r22
 3069               	.LSM259:
 3070 0036 DC01      		movw r26,r24
 3071 0038 1296      		adiw r26,2
 3072 003a 6D91      		ld r22,X+
 3073 003c 7C91      		ld r23,X
 3074 003e 1397      		sbiw r26,2+1
 3075 0040 8D91      		ld r24,X+
 3076 0042 9C91      		ld r25,X
 3077               	.LVL312:
 3078 0044 0E94 0000 		call validate
 3079               	.LVL313:
 3080 0048 8B83      		std Y+3,r24
 3081               	.LVL314:
 3082               	.LSM260:
 3083 004a 8823      		tst r24
 3084 004c 01F0      		breq .+2
 3085 004e 00C0      		rjmp .L145
 3086               	.LSM261:
 3087 0050 EC81      		ldd r30,Y+4
 3088 0052 FD81      		ldd r31,Y+5
 3089 0054 8481      		ldd r24,Z+4
 3090 0056 87FD      		sbrc r24,7
 3091 0058 00C0      		rjmp .L168
 3092               	.L146:
 3093               	.LBB3:
 3094               	.LSM262:
 3095 005a AC81      		ldd r26,Y+4
 3096 005c BD81      		ldd r27,Y+5
 3097 005e 1A96      		adiw r26,10
 3098 0060 AD90      		ld r10,X+
 3099 0062 BD90      		ld r11,X+
 3100 0064 CD90      		ld r12,X+
 3101 0066 DC90      		ld r13,X
 3102 0068 1D97      		sbiw r26,10+3
 3103               	.LVL315:
 3104 006a A614      		cp r10,r6
 3105 006c B704      		cpc r11,r7
 3106 006e C804      		cpc r12,r8
 3107 0070 D904      		cpc r13,r9
 3108 0072 00F4      		brsh .L147
 3109 0074 81FF      		sbrs r24,1
 3110 0076 00C0      		rjmp .L148
 3111               	.L147:
 3112 0078 6401      		movw r12,r8
 3113 007a 5301      		movw r10,r6
 3114               	.L148:
 3115               	.LSM263:
 3116 007c EC81      		ldd r30,Y+4
 3117 007e FD81      		ldd r31,Y+5
 3118 0080 2681      		ldd r18,Z+6
 3119 0082 3781      		ldd r19,Z+7
 3120 0084 4085      		ldd r20,Z+8
 3121 0086 5185      		ldd r21,Z+9
 3122               	.LVL316:
 3123               	.LSM264:
 3124 0088 1682      		std Z+6,__zero_reg__
 3125 008a 1782      		std Z+7,__zero_reg__
 3126 008c 1086      		std Z+8,__zero_reg__
 3127 008e 1186      		std Z+9,__zero_reg__
 3128               	.LSM265:
 3129 0090 A114      		cp r10,__zero_reg__
 3130 0092 B104      		cpc r11,__zero_reg__
 3131 0094 C104      		cpc r12,__zero_reg__
 3132 0096 D104      		cpc r13,__zero_reg__
 3133 0098 01F4      		brne .+2
 3134 009a 00C0      		rjmp .L149
 3135               	.LSM266:
 3136 009c 0190      		ld __tmp_reg__,Z+
 3137 009e F081      		ld r31,Z
 3138 00a0 E02D      		mov r30,__tmp_reg__
 3139 00a2 FA83      		std Y+2,r31
 3140 00a4 E983      		std Y+1,r30
 3141 00a6 8281      		ldd r24,Z+2
 3142 00a8 682E      		mov r6,r24
 3143               	.LVL317:
 3144 00aa 7724      		clr r7
 3145               	.LVL318:
 3146 00ac 8824      		clr r8
 3147 00ae 9924      		clr r9
 3148               	.LVL319:
 3149 00b0 F9E0      		ldi r31,9
 3150 00b2 660C      	1:	lsl r6
 3151 00b4 771C      		rol r7
 3152 00b6 881C      		rol r8
 3153 00b8 991C      		rol r9
 3154 00ba FA95      		dec r31
 3155 00bc 01F4      		brne 1b
 3156               	.LVL320:
 3157               	.LSM267:
 3158 00be 2115      		cp r18,__zero_reg__
 3159 00c0 3105      		cpc r19,__zero_reg__
 3160 00c2 4105      		cpc r20,__zero_reg__
 3161 00c4 5105      		cpc r21,__zero_reg__
 3162 00c6 01F0      		breq .L150
 3163 00c8 1901      		movw r2,r18
 3164 00ca 2A01      		movw r4,r20
 3165 00cc 0894      		sec
 3166 00ce 2108      		sbc r2,__zero_reg__
 3167 00d0 3108      		sbc r3,__zero_reg__
 3168 00d2 4108      		sbc r4,__zero_reg__
 3169 00d4 5108      		sbc r5,__zero_reg__
 3170 00d6 C601      		movw r24,r12
 3171 00d8 B501      		movw r22,r10
 3172 00da 6150      		subi r22,lo8(-(-1))
 3173 00dc 7040      		sbci r23,hi8(-(-1))
 3174 00de 8040      		sbci r24,hlo8(-(-1))
 3175 00e0 9040      		sbci r25,hhi8(-(-1))
 3176 00e2 A401      		movw r20,r8
 3177 00e4 9301      		movw r18,r6
 3178               	.LVL321:
 3179 00e6 0E94 0000 		call __udivmodsi4
 3180 00ea 7901      		movw r14,r18
 3181 00ec 8A01      		movw r16,r20
 3182 00ee C201      		movw r24,r4
 3183 00f0 B101      		movw r22,r2
 3184 00f2 A401      		movw r20,r8
 3185 00f4 9301      		movw r18,r6
 3186 00f6 0E94 0000 		call __udivmodsi4
 3187 00fa E216      		cp r14,r18
 3188 00fc F306      		cpc r15,r19
 3189 00fe 0407      		cpc r16,r20
 3190 0100 1507      		cpc r17,r21
 3191 0102 00F0      		brlo .L150
 3192               	.LSM268:
 3193 0104 8827      		clr r24
 3194 0106 9927      		clr r25
 3195 0108 DC01      		movw r26,r24
 3196 010a 8619      		sub r24,r6
 3197 010c 9709      		sbc r25,r7
 3198 010e A809      		sbc r26,r8
 3199 0110 B909      		sbc r27,r9
 3200 0112 8221      		and r24,r2
 3201 0114 9321      		and r25,r3
 3202 0116 A421      		and r26,r4
 3203 0118 B521      		and r27,r5
 3204 011a EC81      		ldd r30,Y+4
 3205 011c FD81      		ldd r31,Y+5
 3206 011e 8683      		std Z+6,r24
 3207 0120 9783      		std Z+7,r25
 3208 0122 A087      		std Z+8,r26
 3209 0124 B187      		std Z+9,r27
 3210               	.LSM269:
 3211 0126 A81A      		sub r10,r24
 3212 0128 B90A      		sbc r11,r25
 3213 012a CA0A      		sbc r12,r26
 3214 012c DB0A      		sbc r13,r27
 3215               	.LSM270:
 3216 012e 4289      		ldd r20,Z+18
 3217 0130 5389      		ldd r21,Z+19
 3218 0132 6489      		ldd r22,Z+20
 3219 0134 7589      		ldd r23,Z+21
 3220               	.LVL322:
 3221 0136 00C0      		rjmp .L151
 3222               	.LVL323:
 3223               	.L150:
 3224               	.LSM271:
 3225 0138 AC81      		ldd r26,Y+4
 3226 013a BD81      		ldd r27,Y+5
 3227 013c 1E96      		adiw r26,14
 3228 013e 4D91      		ld r20,X+
 3229 0140 5D91      		ld r21,X+
 3230 0142 6D91      		ld r22,X+
 3231 0144 7C91      		ld r23,X
 3232 0146 5197      		sbiw r26,14+3
 3233               	.LVL324:
 3234               	.LSM272:
 3235 0148 4115      		cp r20,__zero_reg__
 3236 014a 5105      		cpc r21,__zero_reg__
 3237 014c 6105      		cpc r22,__zero_reg__
 3238 014e 7105      		cpc r23,__zero_reg__
 3239 0150 01F4      		brne .L152
 3240               	.LSM273:
 3241 0152 8981      		ldd r24,Y+1
 3242 0154 9A81      		ldd r25,Y+2
 3243 0156 40E0      		ldi r20,lo8(0)
 3244 0158 50E0      		ldi r21,hi8(0)
 3245 015a 60E0      		ldi r22,hlo8(0)
 3246 015c 70E0      		ldi r23,hhi8(0)
 3247               	.LVL325:
 3248 015e 0E94 0000 		call create_chain
 3249               	.LVL326:
 3250 0162 AB01      		movw r20,r22
 3251 0164 BC01      		movw r22,r24
 3252               	.LVL327:
 3253               	.LSM274:
 3254 0166 4130      		cpi r20,lo8(1)
 3255 0168 5105      		cpc r21,__zero_reg__
 3256 016a 6105      		cpc r22,__zero_reg__
 3257 016c 7105      		cpc r23,__zero_reg__
 3258 016e 01F4      		brne .L153
 3259               	.L170:
 3260 0170 EC81      		ldd r30,Y+4
 3261 0172 FD81      		ldd r31,Y+5
 3262 0174 8481      		ldd r24,Z+4
 3263 0176 8068      		ori r24,lo8(-128)
 3264 0178 8483      		std Z+4,r24
 3265               	.LVL328:
 3266               	.L168:
 3267 017a F2E0      		ldi r31,lo8(2)
 3268 017c FB83      		std Y+3,r31
 3269               	.LVL329:
 3270 017e 00C0      		rjmp .L145
 3271               	.LVL330:
 3272               	.L153:
 3273               	.LSM275:
 3274 0180 4F3F      		cpi r20,lo8(-1)
 3275 0182 8FEF      		ldi r24,hi8(-1)
 3276 0184 5807      		cpc r21,r24
 3277 0186 8FEF      		ldi r24,hlo8(-1)
 3278 0188 6807      		cpc r22,r24
 3279 018a 8FEF      		ldi r24,hhi8(-1)
 3280 018c 7807      		cpc r23,r24
 3281 018e 01F0      		breq .L171
 3282               	.L154:
 3283               	.LSM276:
 3284 0190 EC81      		ldd r30,Y+4
 3285 0192 FD81      		ldd r31,Y+5
 3286 0194 4687      		std Z+14,r20
 3287 0196 5787      		std Z+15,r21
 3288 0198 608B      		std Z+16,r22
 3289 019a 718B      		std Z+17,r23
 3290               	.LVL331:
 3291               	.L152:
 3292               	.LSM277:
 3293 019c AC81      		ldd r26,Y+4
 3294 019e BD81      		ldd r27,Y+5
 3295 01a0 5296      		adiw r26,18
 3296 01a2 4D93      		st X+,r20
 3297 01a4 5D93      		st X+,r21
 3298 01a6 6D93      		st X+,r22
 3299 01a8 7C93      		st X,r23
 3300 01aa 5597      		sbiw r26,18+3
 3301               	.L151:
 3302               	.LSM278:
 3303 01ac 4115      		cp r20,__zero_reg__
 3304 01ae 5105      		cpc r21,__zero_reg__
 3305 01b0 6105      		cpc r22,__zero_reg__
 3306 01b2 7105      		cpc r23,__zero_reg__
 3307 01b4 01F0      		breq .+2
 3308 01b6 00C0      		rjmp .L167
 3309 01b8 00C0      		rjmp .L149
 3310               	.L162:
 3311               	.LSM279:
 3312 01ba EC81      		ldd r30,Y+4
 3313 01bc FD81      		ldd r31,Y+5
 3314 01be 8481      		ldd r24,Z+4
 3315 01c0 2081      		ld r18,Z
 3316 01c2 3181      		ldd r19,Z+1
 3317               	.LVL332:
 3318 01c4 81FF      		sbrs r24,1
 3319 01c6 00C0      		rjmp .L156
 3320               	.LSM280:
 3321 01c8 C901      		movw r24,r18
 3322 01ca 0E94 0000 		call create_chain
 3323               	.LVL333:
 3324 01ce AB01      		movw r20,r22
 3325 01d0 BC01      		movw r22,r24
 3326               	.LVL334:
 3327               	.LSM281:
 3328 01d2 4115      		cp r20,__zero_reg__
 3329 01d4 5105      		cpc r21,__zero_reg__
 3330 01d6 6105      		cpc r22,__zero_reg__
 3331 01d8 7105      		cpc r23,__zero_reg__
 3332 01da 01F4      		brne .L157
 3333 01dc 6401      		movw r12,r8
 3334 01de 5301      		movw r10,r6
 3335 01e0 00C0      		rjmp .L158
 3336               	.L156:
 3337               	.LSM282:
 3338 01e2 C901      		movw r24,r18
 3339 01e4 0E94 0000 		call get_fat
 3340               	.LVL335:
 3341 01e8 AB01      		movw r20,r22
 3342 01ea BC01      		movw r22,r24
 3343               	.LVL336:
 3344               	.L157:
 3345               	.LSM283:
 3346 01ec 4F3F      		cpi r20,lo8(-1)
 3347 01ee FFEF      		ldi r31,hi8(-1)
 3348 01f0 5F07      		cpc r21,r31
 3349 01f2 FFEF      		ldi r31,hlo8(-1)
 3350 01f4 6F07      		cpc r22,r31
 3351 01f6 FFEF      		ldi r31,hhi8(-1)
 3352 01f8 7F07      		cpc r23,r31
 3353 01fa 01F4      		brne .L159
 3354               	.L171:
 3355 01fc AC81      		ldd r26,Y+4
 3356 01fe BD81      		ldd r27,Y+5
 3357 0200 1496      		adiw r26,4
 3358 0202 8C91      		ld r24,X
 3359 0204 1497      		sbiw r26,4
 3360 0206 8068      		ori r24,lo8(-128)
 3361 0208 1496      		adiw r26,4
 3362 020a 8C93      		st X,r24
 3363 020c B1E0      		ldi r27,lo8(1)
 3364 020e 00C0      		rjmp .L169
 3365               	.L159:
 3366               	.LSM284:
 3367 0210 4230      		cpi r20,lo8(2)
 3368 0212 5105      		cpc r21,__zero_reg__
 3369 0214 6105      		cpc r22,__zero_reg__
 3370 0216 7105      		cpc r23,__zero_reg__
 3371 0218 00F4      		brsh .+2
 3372 021a 00C0      		rjmp .L170
 3373 021c AC81      		ldd r26,Y+4
 3374 021e BD81      		ldd r27,Y+5
 3375 0220 ED91      		ld r30,X+
 3376 0222 FC91      		ld r31,X
 3377 0224 8689      		ldd r24,Z+22
 3378 0226 9789      		ldd r25,Z+23
 3379 0228 A08D      		ldd r26,Z+24
 3380 022a B18D      		ldd r27,Z+25
 3381 022c 4817      		cp r20,r24
 3382 022e 5907      		cpc r21,r25
 3383 0230 6A07      		cpc r22,r26
 3384 0232 7B07      		cpc r23,r27
 3385 0234 00F0      		brlo .+2
 3386 0236 00C0      		rjmp .L170
 3387               	.L161:
 3388               	.LSM285:
 3389 0238 AC81      		ldd r26,Y+4
 3390 023a BD81      		ldd r27,Y+5
 3391 023c 5296      		adiw r26,18
 3392 023e 4D93      		st X+,r20
 3393 0240 5D93      		st X+,r21
 3394 0242 6D93      		st X+,r22
 3395 0244 7C93      		st X,r23
 3396 0246 5597      		sbiw r26,18+3
 3397               	.LSM286:
 3398 0248 EC81      		ldd r30,Y+4
 3399 024a FD81      		ldd r31,Y+5
 3400 024c 8681      		ldd r24,Z+6
 3401 024e 9781      		ldd r25,Z+7
 3402 0250 A085      		ldd r26,Z+8
 3403 0252 B185      		ldd r27,Z+9
 3404 0254 860D      		add r24,r6
 3405 0256 971D      		adc r25,r7
 3406 0258 A81D      		adc r26,r8
 3407 025a B91D      		adc r27,r9
 3408 025c 8683      		std Z+6,r24
 3409 025e 9783      		std Z+7,r25
 3410 0260 A087      		std Z+8,r26
 3411 0262 B187      		std Z+9,r27
 3412               	.LSM287:
 3413 0264 A618      		sub r10,r6
 3414 0266 B708      		sbc r11,r7
 3415 0268 C808      		sbc r12,r8
 3416 026a D908      		sbc r13,r9
 3417               	.LVL337:
 3418               	.L167:
 3419               	.LSM288:
 3420 026c 6A14      		cp r6,r10
 3421 026e 7B04      		cpc r7,r11
 3422 0270 8C04      		cpc r8,r12
 3423 0272 9D04      		cpc r9,r13
 3424 0274 00F4      		brsh .+2
 3425 0276 00C0      		rjmp .L162
 3426               	.L158:
 3427               	.LSM289:
 3428 0278 EC81      		ldd r30,Y+4
 3429 027a FD81      		ldd r31,Y+5
 3430 027c 8681      		ldd r24,Z+6
 3431 027e 9781      		ldd r25,Z+7
 3432 0280 A085      		ldd r26,Z+8
 3433 0282 B185      		ldd r27,Z+9
 3434 0284 8A0D      		add r24,r10
 3435 0286 9B1D      		adc r25,r11
 3436 0288 AC1D      		adc r26,r12
 3437 028a BD1D      		adc r27,r13
 3438 028c 8683      		std Z+6,r24
 3439 028e 9783      		std Z+7,r25
 3440 0290 A087      		std Z+8,r26
 3441 0292 B187      		std Z+9,r27
 3442               	.LSM290:
 3443 0294 D601      		movw r26,r12
 3444 0296 C501      		movw r24,r10
 3445 0298 9170      		andi r25,hi8(511)
 3446 029a A070      		andi r26,hlo8(511)
 3447 029c B070      		andi r27,hhi8(511)
 3448 029e 0097      		sbiw r24,0
 3449 02a0 A105      		cpc r26,__zero_reg__
 3450 02a2 B105      		cpc r27,__zero_reg__
 3451 02a4 01F0      		breq .L149
 3452               	.LSM291:
 3453 02a6 8081      		ld r24,Z
 3454 02a8 9181      		ldd r25,Z+1
 3455 02aa 0E94 0000 		call clust2sect
 3456               	.LVL338:
 3457               	.LSM292:
 3458 02ae 6115      		cp r22,__zero_reg__
 3459 02b0 7105      		cpc r23,__zero_reg__
 3460 02b2 8105      		cpc r24,__zero_reg__
 3461 02b4 9105      		cpc r25,__zero_reg__
 3462               	.LVL339:
 3463 02b6 01F4      		brne .L163
 3464 02b8 AC81      		ldd r26,Y+4
 3465 02ba BD81      		ldd r27,Y+5
 3466 02bc 1496      		adiw r26,4
 3467 02be 8C91      		ld r24,X
 3468 02c0 1497      		sbiw r26,4
 3469 02c2 8068      		ori r24,lo8(-128)
 3470 02c4 1496      		adiw r26,4
 3471 02c6 8C93      		st X,r24
 3472 02c8 B2E0      		ldi r27,lo8(2)
 3473               	.LVL340:
 3474               	.L169:
 3475 02ca BB83      		std Y+3,r27
 3476               	.LVL341:
 3477 02cc 00C0      		rjmp .L145
 3478               	.LVL342:
 3479               	.L163:
 3480               	.LSM293:
 3481 02ce A601      		movw r20,r12
 3482 02d0 9501      		movw r18,r10
 3483               	.LVL343:
 3484 02d2 E9E0      		ldi r30,9
 3485 02d4 5695      	1:	lsr r21
 3486 02d6 4795      		ror r20
 3487 02d8 3795      		ror r19
 3488 02da 2795      		ror r18
 3489 02dc EA95      		dec r30
 3490 02de 01F4      		brne 1b
 3491 02e0 260F      		add r18,r22
 3492 02e2 371F      		adc r19,r23
 3493 02e4 481F      		adc r20,r24
 3494 02e6 591F      		adc r21,r25
 3495 02e8 00C0      		rjmp .L164
 3496               	.LVL344:
 3497               	.L149:
 3498 02ea 20E0      		ldi r18,lo8(0)
 3499 02ec 30E0      		ldi r19,hi8(0)
 3500 02ee 40E0      		ldi r20,hlo8(0)
 3501 02f0 50E0      		ldi r21,hhi8(0)
 3502               	.LVL345:
 3503               	.L164:
 3504               	.LSM294:
 3505 02f2 EC81      		ldd r30,Y+4
 3506 02f4 FD81      		ldd r31,Y+5
 3507 02f6 8681      		ldd r24,Z+6
 3508 02f8 9781      		ldd r25,Z+7
 3509 02fa A085      		ldd r26,Z+8
 3510 02fc B185      		ldd r27,Z+9
 3511 02fe 9170      		andi r25,hi8(511)
 3512 0300 A070      		andi r26,hlo8(511)
 3513 0302 B070      		andi r27,hhi8(511)
 3514 0304 0097      		sbiw r24,0
 3515 0306 A105      		cpc r26,__zero_reg__
 3516 0308 B105      		cpc r27,__zero_reg__
 3517 030a 01F0      		breq .L165
 3518 030c 8689      		ldd r24,Z+22
 3519 030e 9789      		ldd r25,Z+23
 3520 0310 A08D      		ldd r26,Z+24
 3521 0312 B18D      		ldd r27,Z+25
 3522 0314 2817      		cp r18,r24
 3523 0316 3907      		cpc r19,r25
 3524 0318 4A07      		cpc r20,r26
 3525 031a 5B07      		cpc r21,r27
 3526 031c 01F0      		breq .L165
 3527               	.LSM295:
 3528 031e 268B      		std Z+22,r18
 3529 0320 378B      		std Z+23,r19
 3530 0322 408F      		std Z+24,r20
 3531 0324 518F      		std Z+25,r21
 3532               	.L165:
 3533               	.LSM296:
 3534 0326 EC81      		ldd r30,Y+4
 3535 0328 FD81      		ldd r31,Y+5
 3536 032a 2681      		ldd r18,Z+6
 3537 032c 3781      		ldd r19,Z+7
 3538 032e 4085      		ldd r20,Z+8
 3539 0330 5185      		ldd r21,Z+9
 3540               	.LVL346:
 3541 0332 8285      		ldd r24,Z+10
 3542 0334 9385      		ldd r25,Z+11
 3543 0336 A485      		ldd r26,Z+12
 3544 0338 B585      		ldd r27,Z+13
 3545 033a 8217      		cp r24,r18
 3546 033c 9307      		cpc r25,r19
 3547 033e A407      		cpc r26,r20
 3548 0340 B507      		cpc r27,r21
 3549 0342 00F4      		brsh .L145
 3550               	.LSM297:
 3551 0344 2287      		std Z+10,r18
 3552 0346 3387      		std Z+11,r19
 3553 0348 4487      		std Z+12,r20
 3554 034a 5587      		std Z+13,r21
 3555               	.LSM298:
 3556 034c 8481      		ldd r24,Z+4
 3557 034e 8062      		ori r24,lo8(32)
 3558 0350 8483      		std Z+4,r24
 3559               	.LVL347:
 3560               	.L145:
 3561               	.LBE3:
 3562               	.LSM299:
 3563 0352 8B81      		ldd r24,Y+3
 3564               	/* epilogue start */
 3565 0354 0F90      		pop __tmp_reg__
 3566 0356 0F90      		pop __tmp_reg__
 3567 0358 0F90      		pop __tmp_reg__
 3568 035a 0F90      		pop __tmp_reg__
 3569 035c 0F90      		pop __tmp_reg__
 3570 035e CF91      		pop r28
 3571 0360 DF91      		pop r29
 3572 0362 1F91      		pop r17
 3573 0364 0F91      		pop r16
 3574 0366 FF90      		pop r15
 3575 0368 EF90      		pop r14
 3576 036a DF90      		pop r13
 3577 036c CF90      		pop r12
 3578 036e BF90      		pop r11
 3579 0370 AF90      		pop r10
 3580               	.LVL348:
 3581 0372 9F90      		pop r9
 3582 0374 8F90      		pop r8
 3583               	.LVL349:
 3584 0376 7F90      		pop r7
 3585               	.LVL350:
 3586 0378 6F90      		pop r6
 3587               	.LVL351:
 3588 037a 5F90      		pop r5
 3589 037c 4F90      		pop r4
 3590 037e 3F90      		pop r3
 3591 0380 2F90      		pop r2
 3592 0382 0895      		ret
 3593               	.LFE162:
 3595               		.section	.text.dir_remove,"ax",@progbits
 3597               	dir_remove:
 3598               	.LFB149:
 3599               	.LSM300:
 3600               	.LVL352:
 3601 0000 CF93      		push r28
 3602 0002 DF93      		push r29
 3603               	/* prologue: function */
 3604               	/* frame size = 0 */
 3605 0004 EC01      		movw r28,r24
 3606               	.LSM301:
 3607 0006 6C81      		ldd r22,Y+4
 3608 0008 7D81      		ldd r23,Y+5
 3609 000a 0E94 0000 		call dir_sdi
 3610               	.LVL353:
 3611 000e 982F      		mov r25,r24
 3612               	.LVL354:
 3613               	.LSM302:
 3614 0010 8823      		tst r24
 3615 0012 01F4      		brne .L173
 3616               	.LVL355:
 3617               	.LSM303:
 3618 0014 4E85      		ldd r20,Y+14
 3619 0016 5F85      		ldd r21,Y+15
 3620 0018 6889      		ldd r22,Y+16
 3621 001a 7989      		ldd r23,Y+17
 3622 001c 8881      		ld r24,Y
 3623 001e 9981      		ldd r25,Y+1
 3624               	.LVL356:
 3625 0020 0E94 0000 		call move_window
 3626               	.LVL357:
 3627 0024 982F      		mov r25,r24
 3628               	.LVL358:
 3629               	.LSM304:
 3630 0026 8823      		tst r24
 3631 0028 01F4      		brne .L173
 3632               	.LVL359:
 3633               	.LSM305:
 3634 002a EA89      		ldd r30,Y+18
 3635 002c FB89      		ldd r31,Y+19
 3636 002e 85EE      		ldi r24,lo8(-27)
 3637               	.LVL360:
 3638 0030 8083      		st Z,r24
 3639               	.LSM306:
 3640 0032 E881      		ld r30,Y
 3641 0034 F981      		ldd r31,Y+1
 3642 0036 81E0      		ldi r24,lo8(1)
 3643 0038 8483      		std Z+4,r24
 3644               	.LVL361:
 3645               	.L173:
 3646               	.LSM307:
 3647 003a 892F      		mov r24,r25
 3648               	/* epilogue start */
 3649 003c DF91      		pop r29
 3650 003e CF91      		pop r28
 3651               	.LVL362:
 3652 0040 0895      		ret
 3653               	.LFE149:
 3655               		.section	.text.dir_next,"ax",@progbits
 3657               	dir_next:
 3658               	.LFB145:
 3659               	.LSM308:
 3660               	.LVL363:
 3661 0000 8F92      		push r8
 3662 0002 9F92      		push r9
 3663 0004 AF92      		push r10
 3664 0006 BF92      		push r11
 3665 0008 CF92      		push r12
 3666 000a DF92      		push r13
 3667 000c EF92      		push r14
 3668 000e FF92      		push r15
 3669 0010 0F93      		push r16
 3670 0012 1F93      		push r17
 3671 0014 CF93      		push r28
 3672 0016 DF93      		push r29
 3673               	/* prologue: function */
 3674               	/* frame size = 0 */
 3675 0018 EC01      		movw r28,r24
 3676 001a 8B01      		movw r16,r22
 3677               	.LSM309:
 3678 001c AC80      		ldd r10,Y+4
 3679 001e BD80      		ldd r11,Y+5
 3680               	.LVL364:
 3681 0020 0894      		sec
 3682 0022 A11C      		adc r10,__zero_reg__
 3683 0024 B11C      		adc r11,__zero_reg__
 3684               	.LSM310:
 3685 0026 A114      		cp r10,__zero_reg__
 3686 0028 B104      		cpc r11,__zero_reg__
 3687 002a 01F4      		brne .+2
 3688 002c 00C0      		rjmp .L176
 3689               	.LVL365:
 3690 002e 8E85      		ldd r24,Y+14
 3691 0030 9F85      		ldd r25,Y+15
 3692 0032 A889      		ldd r26,Y+16
 3693 0034 B989      		ldd r27,Y+17
 3694 0036 0097      		sbiw r24,0
 3695 0038 A105      		cpc r26,__zero_reg__
 3696 003a B105      		cpc r27,__zero_reg__
 3697 003c 01F4      		brne .+2
 3698 003e 00C0      		rjmp .L176
 3699               	.LSM311:
 3700 0040 2FE0      		ldi r18,lo8(15)
 3701 0042 822E      		mov r8,r18
 3702 0044 912C      		mov r9,__zero_reg__
 3703 0046 8A20      		and r8,r10
 3704 0048 9B20      		and r9,r11
 3705 004a 8114      		cp r8,__zero_reg__
 3706 004c 9104      		cpc r9,__zero_reg__
 3707 004e 01F0      		breq .+2
 3708 0050 00C0      		rjmp .L177
 3709               	.LSM312:
 3710 0052 0196      		adiw r24,1
 3711 0054 A11D      		adc r26,__zero_reg__
 3712 0056 B11D      		adc r27,__zero_reg__
 3713 0058 8E87      		std Y+14,r24
 3714 005a 9F87      		std Y+15,r25
 3715 005c A88B      		std Y+16,r26
 3716 005e B98B      		std Y+17,r27
 3717               	.LSM313:
 3718 0060 4A85      		ldd r20,Y+10
 3719 0062 5B85      		ldd r21,Y+11
 3720 0064 6C85      		ldd r22,Y+12
 3721 0066 7D85      		ldd r23,Y+13
 3722 0068 E881      		ld r30,Y
 3723 006a F981      		ldd r31,Y+1
 3724 006c 4115      		cp r20,__zero_reg__
 3725 006e 5105      		cpc r21,__zero_reg__
 3726 0070 6105      		cpc r22,__zero_reg__
 3727 0072 7105      		cpc r23,__zero_reg__
 3728 0074 01F4      		brne .L178
 3729               	.LSM314:
 3730 0076 8085      		ldd r24,Z+8
 3731 0078 9185      		ldd r25,Z+9
 3732 007a A816      		cp r10,r24
 3733 007c B906      		cpc r11,r25
 3734 007e 00F4      		brsh .+2
 3735 0080 00C0      		rjmp .L177
 3736 0082 00C0      		rjmp .L176
 3737               	.L178:
 3738               	.LSM315:
 3739 0084 8281      		ldd r24,Z+2
 3740 0086 90E0      		ldi r25,lo8(0)
 3741 0088 0197      		sbiw r24,1
 3742 008a 9501      		movw r18,r10
 3743 008c B4E0      		ldi r27,4
 3744 008e 3695      	1:	lsr r19
 3745 0090 2795      		ror r18
 3746 0092 BA95      		dec r27
 3747 0094 01F4      		brne 1b
 3748 0096 8223      		and r24,r18
 3749 0098 9323      		and r25,r19
 3750 009a 892B      		or r24,r25
 3751 009c 01F0      		breq .+2
 3752 009e 00C0      		rjmp .L177
 3753               	.LSM316:
 3754 00a0 CF01      		movw r24,r30
 3755 00a2 0E94 0000 		call get_fat
 3756 00a6 6B01      		movw r12,r22
 3757 00a8 7C01      		movw r14,r24
 3758               	.LVL366:
 3759               	.LSM317:
 3760 00aa 82E0      		ldi r24,lo8(2)
 3761 00ac C816      		cp r12,r24
 3762 00ae D104      		cpc r13,__zero_reg__
 3763 00b0 E104      		cpc r14,__zero_reg__
 3764 00b2 F104      		cpc r15,__zero_reg__
 3765 00b4 00F4      		brsh .+2
 3766 00b6 00C0      		rjmp .L179
 3767               	.LSM318:
 3768 00b8 9FEF      		ldi r25,lo8(-1)
 3769 00ba C916      		cp r12,r25
 3770 00bc 9FEF      		ldi r25,hi8(-1)
 3771 00be D906      		cpc r13,r25
 3772 00c0 9FEF      		ldi r25,hlo8(-1)
 3773 00c2 E906      		cpc r14,r25
 3774 00c4 9FEF      		ldi r25,hhi8(-1)
 3775 00c6 F906      		cpc r15,r25
 3776 00c8 01F4      		brne .+2
 3777 00ca 00C0      		rjmp .L180
 3778               	.LSM319:
 3779 00cc E881      		ld r30,Y
 3780 00ce F981      		ldd r31,Y+1
 3781 00d0 8689      		ldd r24,Z+22
 3782 00d2 9789      		ldd r25,Z+23
 3783 00d4 A08D      		ldd r26,Z+24
 3784 00d6 B18D      		ldd r27,Z+25
 3785 00d8 C816      		cp r12,r24
 3786 00da D906      		cpc r13,r25
 3787 00dc EA06      		cpc r14,r26
 3788 00de FB06      		cpc r15,r27
 3789 00e0 00F4      		brsh .+2
 3790 00e2 00C0      		rjmp .L181
 3791               	.LBB4:
 3792               	.LSM320:
 3793 00e4 012B      		or r16,r17
 3794 00e6 01F4      		brne .+2
 3795 00e8 00C0      		rjmp .L176
 3796               	.LSM321:
 3797 00ea 4A85      		ldd r20,Y+10
 3798 00ec 5B85      		ldd r21,Y+11
 3799 00ee 6C85      		ldd r22,Y+12
 3800 00f0 7D85      		ldd r23,Y+13
 3801 00f2 CF01      		movw r24,r30
 3802 00f4 0E94 0000 		call create_chain
 3803 00f8 6B01      		movw r12,r22
 3804 00fa 7C01      		movw r14,r24
 3805               	.LSM322:
 3806 00fc 6115      		cp r22,__zero_reg__
 3807 00fe 7105      		cpc r23,__zero_reg__
 3808 0100 8105      		cpc r24,__zero_reg__
 3809 0102 9105      		cpc r25,__zero_reg__
 3810 0104 01F4      		brne .L182
 3811               	.LVL367:
 3812 0106 87E0      		ldi r24,lo8(7)
 3813 0108 00C0      		rjmp .L183
 3814               	.L182:
 3815               	.LSM323:
 3816 010a 6130      		cpi r22,lo8(1)
 3817 010c 7105      		cpc r23,__zero_reg__
 3818 010e 8105      		cpc r24,__zero_reg__
 3819 0110 9105      		cpc r25,__zero_reg__
 3820 0112 01F4      		brne .+2
 3821 0114 00C0      		rjmp .L179
 3822               	.LSM324:
 3823 0116 6F3F      		cpi r22,lo8(-1)
 3824 0118 FFEF      		ldi r31,hi8(-1)
 3825 011a 7F07      		cpc r23,r31
 3826 011c FFEF      		ldi r31,hlo8(-1)
 3827 011e 8F07      		cpc r24,r31
 3828 0120 FFEF      		ldi r31,hhi8(-1)
 3829 0122 9F07      		cpc r25,r31
 3830 0124 01F4      		brne .+2
 3831 0126 00C0      		rjmp .L180
 3832               	.LSM325:
 3833 0128 8881      		ld r24,Y
 3834 012a 9981      		ldd r25,Y+1
 3835 012c 40E0      		ldi r20,lo8(0)
 3836 012e 50E0      		ldi r21,hi8(0)
 3837 0130 60E0      		ldi r22,hlo8(0)
 3838 0132 70E0      		ldi r23,hhi8(0)
 3839 0134 0E94 0000 		call move_window
 3840               	.LVL368:
 3841 0138 8823      		tst r24
 3842 013a 01F0      		breq .+2
 3843 013c 00C0      		rjmp .L180
 3844               	.LSM326:
 3845 013e 8881      		ld r24,Y
 3846 0140 9981      		ldd r25,Y+1
 3847 0142 8E96      		adiw r24,46
 3848 0144 60E0      		ldi r22,lo8(0)
 3849 0146 70E0      		ldi r23,hi8(0)
 3850 0148 40E0      		ldi r20,lo8(512)
 3851 014a 52E0      		ldi r21,hi8(512)
 3852 014c 0E94 0000 		call mem_set
 3853               	.LSM327:
 3854 0150 0881      		ld r16,Y
 3855 0152 1981      		ldd r17,Y+1
 3856               	.LVL369:
 3857 0154 C801      		movw r24,r16
 3858 0156 B701      		movw r22,r14
 3859 0158 A601      		movw r20,r12
 3860 015a 0E94 0000 		call clust2sect
 3861 015e F801      		movw r30,r16
 3862 0160 62A7      		std Z+42,r22
 3863 0162 73A7      		std Z+43,r23
 3864 0164 84A7      		std Z+44,r24
 3865 0166 95A7      		std Z+45,r25
 3866 0168 00E0      		ldi r16,lo8(0)
 3867               	.LVL370:
 3868               	.LSM328:
 3869 016a 11E0      		ldi r17,lo8(1)
 3870 016c 00C0      		rjmp .L184
 3871               	.L185:
 3872 016e 1483      		std Z+4,r17
 3873               	.LSM329:
 3874 0170 8881      		ld r24,Y
 3875 0172 9981      		ldd r25,Y+1
 3876 0174 40E0      		ldi r20,lo8(0)
 3877 0176 50E0      		ldi r21,hi8(0)
 3878 0178 60E0      		ldi r22,hlo8(0)
 3879 017a 70E0      		ldi r23,hhi8(0)
 3880 017c 0E94 0000 		call move_window
 3881 0180 8823      		tst r24
 3882 0182 01F0      		breq .+2
 3883 0184 00C0      		rjmp .L180
 3884               	.LSM330:
 3885 0186 E881      		ld r30,Y
 3886 0188 F981      		ldd r31,Y+1
 3887 018a 82A5      		ldd r24,Z+42
 3888 018c 93A5      		ldd r25,Z+43
 3889 018e A4A5      		ldd r26,Z+44
 3890 0190 B5A5      		ldd r27,Z+45
 3891 0192 0196      		adiw r24,1
 3892 0194 A11D      		adc r26,__zero_reg__
 3893 0196 B11D      		adc r27,__zero_reg__
 3894 0198 82A7      		std Z+42,r24
 3895 019a 93A7      		std Z+43,r25
 3896 019c A4A7      		std Z+44,r26
 3897 019e B5A7      		std Z+45,r27
 3898               	.LSM331:
 3899 01a0 0F5F      		subi r16,lo8(-(1))
 3900               	.L184:
 3901 01a2 E881      		ld r30,Y
 3902 01a4 F981      		ldd r31,Y+1
 3903 01a6 8281      		ldd r24,Z+2
 3904 01a8 0817      		cp r16,r24
 3905 01aa 00F0      		brlo .L185
 3906               	.LSM332:
 3907 01ac 82A5      		ldd r24,Z+42
 3908 01ae 93A5      		ldd r25,Z+43
 3909 01b0 A4A5      		ldd r26,Z+44
 3910 01b2 B5A5      		ldd r27,Z+45
 3911 01b4 801B      		sub r24,r16
 3912 01b6 9109      		sbc r25,__zero_reg__
 3913 01b8 A109      		sbc r26,__zero_reg__
 3914 01ba B109      		sbc r27,__zero_reg__
 3915 01bc 82A7      		std Z+42,r24
 3916 01be 93A7      		std Z+43,r25
 3917 01c0 A4A7      		std Z+44,r26
 3918 01c2 B5A7      		std Z+45,r27
 3919               	.LVL371:
 3920               	.L181:
 3921               	.LBE4:
 3922               	.LSM333:
 3923 01c4 CA86      		std Y+10,r12
 3924 01c6 DB86      		std Y+11,r13
 3925 01c8 EC86      		std Y+12,r14
 3926 01ca FD86      		std Y+13,r15
 3927               	.LSM334:
 3928 01cc 8881      		ld r24,Y
 3929 01ce 9981      		ldd r25,Y+1
 3930 01d0 B701      		movw r22,r14
 3931 01d2 A601      		movw r20,r12
 3932 01d4 0E94 0000 		call clust2sect
 3933 01d8 6E87      		std Y+14,r22
 3934 01da 7F87      		std Y+15,r23
 3935 01dc 888B      		std Y+16,r24
 3936 01de 998B      		std Y+17,r25
 3937               	.LVL372:
 3938               	.L177:
 3939               	.LSM335:
 3940 01e0 BD82      		std Y+5,r11
 3941 01e2 AC82      		std Y+4,r10
 3942               	.LSM336:
 3943 01e4 A5E0      		ldi r26,5
 3944 01e6 880C      	1:	lsl r8
 3945 01e8 991C      		rol r9
 3946 01ea AA95      		dec r26
 3947 01ec 01F4      		brne 1b
 3948 01ee 8EE2      		ldi r24,lo8(46)
 3949 01f0 90E0      		ldi r25,hi8(46)
 3950 01f2 880E      		add r8,r24
 3951 01f4 991E      		adc r9,r25
 3952 01f6 8881      		ld r24,Y
 3953 01f8 9981      		ldd r25,Y+1
 3954 01fa 880D      		add r24,r8
 3955 01fc 991D      		adc r25,r9
 3956 01fe 9B8B      		std Y+19,r25
 3957 0200 8A8B      		std Y+18,r24
 3958 0202 80E0      		ldi r24,lo8(0)
 3959 0204 00C0      		rjmp .L183
 3960               	.LVL373:
 3961               	.L176:
 3962               	.LSM337:
 3963 0206 84E0      		ldi r24,lo8(4)
 3964 0208 00C0      		rjmp .L183
 3965               	.LVL374:
 3966               	.L179:
 3967 020a 82E0      		ldi r24,lo8(2)
 3968 020c 00C0      		rjmp .L183
 3969               	.LVL375:
 3970               	.L180:
 3971 020e 81E0      		ldi r24,lo8(1)
 3972               	.LVL376:
 3973               	.L183:
 3974               	/* epilogue start */
 3975               	.LSM338:
 3976 0210 DF91      		pop r29
 3977 0212 CF91      		pop r28
 3978               	.LVL377:
 3979 0214 1F91      		pop r17
 3980 0216 0F91      		pop r16
 3981               	.LVL378:
 3982 0218 FF90      		pop r15
 3983 021a EF90      		pop r14
 3984 021c DF90      		pop r13
 3985 021e CF90      		pop r12
 3986               	.LVL379:
 3987 0220 BF90      		pop r11
 3988 0222 AF90      		pop r10
 3989               	.LVL380:
 3990 0224 9F90      		pop r9
 3991 0226 8F90      		pop r8
 3992 0228 0895      		ret
 3993               	.LFE145:
 3995               		.data
 3996               	.LC0:
 3997 0000 222A 2B2C 		.string	"\"*+,:<=>?[]|\177"
 3997      3A3C 3D3E 
 3997      3F5B 5D7C 
 3997      7F00 
 3998               		.section	.text.follow_path,"ax",@progbits
 4000               	follow_path:
 4001               	.LFB152:
 4002               	.LSM339:
 4003               	.LVL381:
 4004 0000 9F92      		push r9
 4005 0002 AF92      		push r10
 4006 0004 BF92      		push r11
 4007 0006 CF92      		push r12
 4008 0008 DF92      		push r13
 4009 000a EF92      		push r14
 4010 000c FF92      		push r15
 4011 000e 0F93      		push r16
 4012 0010 1F93      		push r17
 4013 0012 CF93      		push r28
 4014 0014 DF93      		push r29
 4015               	/* prologue: function */
 4016               	/* frame size = 0 */
 4017 0016 EC01      		movw r28,r24
 4018 0018 5B01      		movw r10,r22
 4019               	.LSM340:
 4020 001a FB01      		movw r30,r22
 4021 001c 8081      		ld r24,Z
 4022               	.LVL382:
 4023 001e 8F32      		cpi r24,lo8(47)
 4024 0020 01F0      		breq .L188
 4025 0022 8C35      		cpi r24,lo8(92)
 4026 0024 01F4      		brne .L189
 4027               	.L188:
 4028               	.LSM341:
 4029 0026 0894      		sec
 4030 0028 A11C      		adc r10,__zero_reg__
 4031 002a B11C      		adc r11,__zero_reg__
 4032               	.LVL383:
 4033               	.L189:
 4034               	.LSM342:
 4035 002c 1E82      		std Y+6,__zero_reg__
 4036 002e 1F82      		std Y+7,__zero_reg__
 4037 0030 1886      		std Y+8,__zero_reg__
 4038 0032 1986      		std Y+9,__zero_reg__
 4039               	.LSM343:
 4040 0034 F501      		movw r30,r10
 4041 0036 8081      		ld r24,Z
 4042 0038 8032      		cpi r24,lo8(32)
 4043 003a 00F4      		brsh .L190
 4044               	.LSM344:
 4045 003c CE01      		movw r24,r28
 4046 003e 60E0      		ldi r22,lo8(0)
 4047 0040 70E0      		ldi r23,hi8(0)
 4048 0042 0E94 0000 		call dir_sdi
 4049               	.LSM345:
 4050 0046 1B8A      		std Y+19,__zero_reg__
 4051 0048 1A8A      		std Y+18,__zero_reg__
 4052 004a 00C0      		rjmp .L191
 4053               	.LVL384:
 4054               	.L190:
 4055               	.LBB13:
 4056               	.LBB14:
 4057               	.LSM346:
 4058 004c E5E0      		ldi r30,lo8(5)
 4059 004e 9E2E      		mov r9,r30
 4060               	.LVL385:
 4061               	.L224:
 4062               	.LSM347:
 4063 0050 0C89      		ldd r16,Y+20
 4064 0052 1D89      		ldd r17,Y+21
 4065               	.LSM348:
 4066 0054 C801      		movw r24,r16
 4067 0056 60E2      		ldi r22,lo8(32)
 4068 0058 70E0      		ldi r23,hi8(32)
 4069 005a 4BE0      		ldi r20,lo8(11)
 4070 005c 50E0      		ldi r21,hi8(11)
 4071 005e 0E94 0000 		call mem_set
 4072               	.LVL386:
 4073 0062 40E0      		ldi r20,lo8(0)
 4074 0064 50E0      		ldi r21,hi8(0)
 4075               	.LVL387:
 4076 0066 EE24      		clr r14
 4077 0068 FF24      		clr r15
 4078 006a 78E0      		ldi r23,lo8(8)
 4079 006c C72E      		mov r12,r23
 4080 006e D12C      		mov r13,__zero_reg__
 4081 0070 A0E0      		ldi r26,lo8(0)
 4082               	.LVL388:
 4083               	.L223:
 4084               	.LSM349:
 4085 0072 F501      		movw r30,r10
 4086 0074 EE0D      		add r30,r14
 4087 0076 FF1D      		adc r31,r15
 4088 0078 2081      		ld r18,Z
 4089 007a 0894      		sec
 4090 007c E11C      		adc r14,__zero_reg__
 4091 007e F11C      		adc r15,__zero_reg__
 4092               	.LSM350:
 4093 0080 2132      		cpi r18,lo8(33)
 4094 0082 00F4      		brsh .+2
 4095 0084 00C0      		rjmp .L192
 4096 0086 2F32      		cpi r18,lo8(47)
 4097 0088 01F4      		brne .+2
 4098 008a 00C0      		rjmp .L193
 4099 008c 2C35      		cpi r18,lo8(92)
 4100 008e 01F4      		brne .+2
 4101 0090 00C0      		rjmp .L193
 4102               	.LSM351:
 4103 0092 2E32      		cpi r18,lo8(46)
 4104 0094 01F0      		breq .L194
 4105 0096 4C15      		cp r20,r12
 4106 0098 5D05      		cpc r21,r13
 4107 009a 04F0      		brlt .L195
 4108               	.L194:
 4109               	.LSM352:
 4110 009c F8E0      		ldi r31,lo8(8)
 4111 009e CF16      		cp r12,r31
 4112 00a0 D104      		cpc r13,__zero_reg__
 4113 00a2 01F0      		breq .+2
 4114 00a4 00C0      		rjmp .L196
 4115 00a6 2E32      		cpi r18,lo8(46)
 4116 00a8 01F0      		breq .+2
 4117 00aa 00C0      		rjmp .L196
 4118               	.LSM353:
 4119 00ac AA0F      		lsl r26
 4120 00ae AA0F      		lsl r26
 4121 00b0 48E0      		ldi r20,lo8(8)
 4122 00b2 50E0      		ldi r21,hi8(8)
 4123 00b4 6BE0      		ldi r22,lo8(11)
 4124 00b6 C62E      		mov r12,r22
 4125 00b8 D12C      		mov r13,__zero_reg__
 4126 00ba 00C0      		rjmp .L223
 4127               	.L195:
 4128               	.LSM354:
 4129 00bc 27FD      		sbrc r18,7
 4130               	.LSM355:
 4131 00be A360      		ori r26,lo8(3)
 4132               	.L198:
 4133               	.LSM356:
 4134 00c0 822F      		mov r24,r18
 4135 00c2 8158      		subi r24,lo8(-(127))
 4136 00c4 8F31      		cpi r24,lo8(31)
 4137 00c6 00F0      		brlo .L199
 4138 00c8 8F55      		subi r24,lo8(-(-95))
 4139 00ca 8D31      		cpi r24,lo8(29)
 4140 00cc 00F4      		brsh .L200
 4141               	.L199:
 4142               	.LSM357:
 4143 00ce F501      		movw r30,r10
 4144 00d0 EE0D      		add r30,r14
 4145 00d2 FF1D      		adc r31,r15
 4146 00d4 3081      		ld r19,Z
 4147               	.LSM358:
 4148 00d6 832F      		mov r24,r19
 4149 00d8 8054      		subi r24,lo8(-(-64))
 4150 00da 8F33      		cpi r24,lo8(63)
 4151 00dc 00F0      		brlo .L201
 4152 00de 8054      		subi r24,lo8(-(-64))
 4153 00e0 8D37      		cpi r24,lo8(125)
 4154 00e2 00F0      		brlo .+2
 4155 00e4 00C0      		rjmp .L196
 4156               	.L201:
 4157 00e6 C601      		movw r24,r12
 4158 00e8 0197      		sbiw r24,1
 4159 00ea 4817      		cp r20,r24
 4160 00ec 5907      		cpc r21,r25
 4161 00ee 04F0      		brlt .+2
 4162 00f0 00C0      		rjmp .L196
 4163               	.LSM359:
 4164 00f2 0894      		sec
 4165 00f4 E11C      		adc r14,__zero_reg__
 4166 00f6 F11C      		adc r15,__zero_reg__
 4167               	.LSM360:
 4168 00f8 F801      		movw r30,r16
 4169 00fa E40F      		add r30,r20
 4170 00fc F51F      		adc r31,r21
 4171 00fe 2083      		st Z,r18
 4172 0100 CA01      		movw r24,r20
 4173 0102 0196      		adiw r24,1
 4174               	.LVL389:
 4175               	.LSM361:
 4176 0104 F801      		movw r30,r16
 4177 0106 E80F      		add r30,r24
 4178 0108 F91F      		adc r31,r25
 4179 010a 3083      		st Z,r19
 4180 010c AC01      		movw r20,r24
 4181 010e 00C0      		rjmp .L225
 4182               	.LVL390:
 4183               	.L200:
 4184               	.LSM362:
 4185 0110 622F      		mov r22,r18
 4186 0112 70E0      		ldi r23,lo8(0)
 4187 0114 E0E0      		ldi r30,lo8(.LC0)
 4188 0116 F0E0      		ldi r31,hi8(.LC0)
 4189               	.LVL391:
 4190 0118 00C0      		rjmp .L202
 4191               	.L204:
 4192               	.LBB15:
 4193               	.LBB16:
 4194               	.LSM363:
 4195 011a 3196      		adiw r30,1
 4196               	.L202:
 4197 011c 8081      		ld r24,Z
 4198 011e 8823      		tst r24
 4199 0120 01F0      		breq .L203
 4200 0122 90E0      		ldi r25,lo8(0)
 4201 0124 8617      		cp r24,r22
 4202 0126 9707      		cpc r25,r23
 4203 0128 01F4      		brne .L204
 4204 012a 00C0      		rjmp .L196
 4205               	.L203:
 4206               	.LBE16:
 4207               	.LBE15:
 4208               	.LSM364:
 4209 012c 822F      		mov r24,r18
 4210 012e 8154      		subi r24,lo8(-(-65))
 4211 0130 8A31      		cpi r24,lo8(26)
 4212 0132 00F4      		brsh .L205
 4213               	.LSM365:
 4214 0134 A260      		ori r26,lo8(2)
 4215 0136 00C0      		rjmp .L206
 4216               	.L205:
 4217               	.LSM366:
 4218 0138 822F      		mov r24,r18
 4219 013a 8156      		subi r24,lo8(-(-97))
 4220 013c 8A31      		cpi r24,lo8(26)
 4221 013e 00F4      		brsh .L206
 4222               	.LSM367:
 4223 0140 A160      		ori r26,lo8(1)
 4224 0142 2052      		subi r18,lo8(-(-32))
 4225               	.L206:
 4226               	.LSM368:
 4227 0144 F801      		movw r30,r16
 4228               	.LVL392:
 4229 0146 E40F      		add r30,r20
 4230 0148 F51F      		adc r31,r21
 4231 014a 2083      		st Z,r18
 4232               	.LVL393:
 4233               	.L225:
 4234 014c 4F5F      		subi r20,lo8(-(1))
 4235 014e 5F4F      		sbci r21,hi8(-(1))
 4236 0150 00C0      		rjmp .L223
 4237               	.L192:
 4238 0152 64E0      		ldi r22,lo8(4)
 4239               	.LVL394:
 4240               	.L219:
 4241               	.LSM369:
 4242 0154 452B      		or r20,r21
 4243 0156 01F4      		brne .+2
 4244 0158 00C0      		rjmp .L196
 4245               	.LSM370:
 4246 015a F801      		movw r30,r16
 4247 015c 8081      		ld r24,Z
 4248 015e 853E      		cpi r24,lo8(-27)
 4249 0160 01F4      		brne .L207
 4250 0162 9082      		st Z,r9
 4251               	.L207:
 4252               	.LSM371:
 4253 0164 F8E0      		ldi r31,lo8(8)
 4254 0166 CF16      		cp r12,r31
 4255 0168 D104      		cpc r13,__zero_reg__
 4256 016a 01F4      		brne .L208
 4257 016c AA0F      		lsl r26
 4258 016e AA0F      		lsl r26
 4259               	.L208:
 4260               	.LSM372:
 4261 0170 2A2F      		mov r18,r26
 4262 0172 30E0      		ldi r19,lo8(0)
 4263               	.LVL395:
 4264 0174 C901      		movw r24,r18
 4265 0176 8370      		andi r24,lo8(3)
 4266 0178 9070      		andi r25,hi8(3)
 4267 017a 0197      		sbiw r24,1
 4268 017c 01F4      		brne .L209
 4269 017e 6061      		ori r22,lo8(16)
 4270               	.L209:
 4271               	.LSM373:
 4272 0180 2C70      		andi r18,lo8(12)
 4273 0182 3070      		andi r19,hi8(12)
 4274 0184 2430      		cpi r18,4
 4275 0186 3105      		cpc r19,__zero_reg__
 4276 0188 01F4      		brne .L210
 4277 018a 6860      		ori r22,lo8(8)
 4278               	.L210:
 4279               	.LSM374:
 4280 018c F801      		movw r30,r16
 4281 018e 6387      		std Z+11,r22
 4282               	.LBE14:
 4283               	.LBE13:
 4284               	.LBB18:
 4285               	.LSM375:
 4286 0190 CE01      		movw r24,r28
 4287 0192 60E0      		ldi r22,lo8(0)
 4288 0194 70E0      		ldi r23,hi8(0)
 4289               	.LVL396:
 4290 0196 0E94 0000 		call dir_sdi
 4291               	.LVL397:
 4292               	.L226:
 4293 019a 482F      		mov r20,r24
 4294               	.LVL398:
 4295               	.LBB19:
 4296               	.LSM376:
 4297 019c 8823      		tst r24
 4298 019e 01F4      		brne .L211
 4299               	.LVL399:
 4300               	.LBE19:
 4301               	.LSM377:
 4302 01a0 4E85      		ldd r20,Y+14
 4303 01a2 5F85      		ldd r21,Y+15
 4304 01a4 6889      		ldd r22,Y+16
 4305 01a6 7989      		ldd r23,Y+17
 4306 01a8 8881      		ld r24,Y
 4307 01aa 9981      		ldd r25,Y+1
 4308               	.LVL400:
 4309 01ac 0E94 0000 		call move_window
 4310 01b0 482F      		mov r20,r24
 4311               	.LVL401:
 4312               	.LBB22:
 4313               	.LSM378:
 4314 01b2 8823      		tst r24
 4315 01b4 01F4      		brne .L211
 4316               	.LVL402:
 4317               	.LSM379:
 4318 01b6 EA89      		ldd r30,Y+18
 4319 01b8 FB89      		ldd r31,Y+19
 4320               	.LVL403:
 4321               	.LSM380:
 4322 01ba 8081      		ld r24,Z
 4323               	.LVL404:
 4324 01bc 8823      		tst r24
 4325 01be 01F4      		brne .L212
 4326 01c0 44E0      		ldi r20,lo8(4)
 4327 01c2 00C0      		rjmp .L211
 4328               	.L212:
 4329               	.LSM381:
 4330 01c4 8385      		ldd r24,Z+11
 4331 01c6 83FD      		sbrc r24,3
 4332 01c8 00C0      		rjmp .L213
 4333 01ca 8C89      		ldd r24,Y+20
 4334               	.LVL405:
 4335 01cc 9D89      		ldd r25,Y+21
 4336               	.LVL406:
 4337 01ce 9C01      		movw r18,r24
 4338               	.LVL407:
 4339 01d0 D901      		movw r26,r18
 4340               	.LVL408:
 4341 01d2 2BE0      		ldi r18,lo8(11)
 4342 01d4 30E0      		ldi r19,hi8(11)
 4343               	.LVL409:
 4344               	.L214:
 4345               	.LBB20:
 4346               	.LBB21:
 4347               	.LSM382:
 4348 01d6 2150      		subi r18,lo8(-(-1))
 4349 01d8 3040      		sbci r19,hi8(-(-1))
 4350 01da 8FEF      		ldi r24,hi8(-1)
 4351 01dc 2F3F      		cpi r18,lo8(-1)
 4352 01de 3807      		cpc r19,r24
 4353 01e0 01F0      		breq .L211
 4354 01e2 9081      		ld r25,Z
 4355               	.LVL410:
 4356 01e4 8C91      		ld r24,X
 4357 01e6 9817      		cp r25,r24
 4358 01e8 01F4      		brne .L213
 4359 01ea 3196      		adiw r30,1
 4360               	.LVL411:
 4361 01ec 1196      		adiw r26,1
 4362 01ee 00C0      		rjmp .L214
 4363               	.LVL412:
 4364               	.L213:
 4365               	.LBE21:
 4366               	.LBE20:
 4367               	.LBE22:
 4368               	.LSM383:
 4369 01f0 CE01      		movw r24,r28
 4370 01f2 60E0      		ldi r22,lo8(0)
 4371 01f4 70E0      		ldi r23,hi8(0)
 4372 01f6 0E94 0000 		call dir_next
 4373               	.LVL413:
 4374 01fa 00C0      		rjmp .L226
 4375               	.LVL414:
 4376               	.L211:
 4377               	.LBE18:
 4378               	.LSM384:
 4379 01fc EC89      		ldd r30,Y+20
 4380 01fe FD89      		ldd r31,Y+21
 4381               	.LVL415:
 4382 0200 9385      		ldd r25,Z+11
 4383               	.LVL416:
 4384               	.LSM385:
 4385 0202 4423      		tst r20
 4386 0204 01F0      		breq .L216
 4387 0206 842F      		mov r24,r20
 4388               	.LSM386:
 4389 0208 4430      		cpi r20,lo8(4)
 4390 020a 01F4      		brne .L217
 4391               	.LSM387:
 4392 020c 92FF      		sbrs r25,2
 4393 020e 00C0      		rjmp .L218
 4394 0210 00C0      		rjmp .L191
 4395               	.L216:
 4396               	.LSM388:
 4397 0212 92FD      		sbrc r25,2
 4398 0214 00C0      		rjmp .L217
 4399               	.LSM389:
 4400 0216 EA89      		ldd r30,Y+18
 4401 0218 FB89      		ldd r31,Y+19
 4402               	.LVL417:
 4403               	.LSM390:
 4404 021a 8385      		ldd r24,Z+11
 4405 021c 84FF      		sbrs r24,4
 4406 021e 00C0      		rjmp .L218
 4407               	.LBB23:
 4408               	.LBB17:
 4409               	.LSM391:
 4410 0220 AE0C      		add r10,r14
 4411 0222 BF1C      		adc r11,r15
 4412               	.LBE17:
 4413               	.LBE23:
 4414               	.LSM392:
 4415 0224 8489      		ldd r24,Z+20
 4416 0226 9589      		ldd r25,Z+21
 4417 0228 A0E0      		ldi r26,lo8(0)
 4418 022a B0E0      		ldi r27,hi8(0)
 4419               	.LVL418:
 4420 022c DC01      		movw r26,r24
 4421 022e 9927      		clr r25
 4422 0230 8827      		clr r24
 4423 0232 228D      		ldd r18,Z+26
 4424 0234 338D      		ldd r19,Z+27
 4425               	.LVL419:
 4426 0236 40E0      		ldi r20,lo8(0)
 4427 0238 50E0      		ldi r21,hi8(0)
 4428               	.LVL420:
 4429 023a 822B      		or r24,r18
 4430 023c 932B      		or r25,r19
 4431 023e A42B      		or r26,r20
 4432 0240 B52B      		or r27,r21
 4433 0242 8E83      		std Y+6,r24
 4434 0244 9F83      		std Y+7,r25
 4435 0246 A887      		std Y+8,r26
 4436 0248 B987      		std Y+9,r27
 4437 024a 00C0      		rjmp .L224
 4438               	.LVL421:
 4439               	.L196:
 4440               	.LSM393:
 4441 024c 86E0      		ldi r24,lo8(6)
 4442               	.LVL422:
 4443 024e 00C0      		rjmp .L191
 4444               	.LVL423:
 4445               	.L217:
 4446 0250 842F      		mov r24,r20
 4447 0252 00C0      		rjmp .L191
 4448               	.LVL424:
 4449               	.L218:
 4450 0254 85E0      		ldi r24,lo8(5)
 4451               	.LVL425:
 4452               	.L191:
 4453               	.LVL426:
 4454               	/* epilogue start */
 4455               	.LSM394:
 4456 0256 DF91      		pop r29
 4457 0258 CF91      		pop r28
 4458               	.LVL427:
 4459 025a 1F91      		pop r17
 4460 025c 0F91      		pop r16
 4461               	.LVL428:
 4462 025e FF90      		pop r15
 4463 0260 EF90      		pop r14
 4464               	.LVL429:
 4465 0262 DF90      		pop r13
 4466 0264 CF90      		pop r12
 4467               	.LVL430:
 4468 0266 BF90      		pop r11
 4469 0268 AF90      		pop r10
 4470               	.LVL431:
 4471 026a 9F90      		pop r9
 4472 026c 0895      		ret
 4473               	.LVL432:
 4474               	.L193:
 4475               	.LSM395:
 4476 026e 60E0      		ldi r22,lo8(0)
 4477               	.LVL433:
 4478 0270 00C0      		rjmp .L219
 4479               	.LFE152:
 4481               		.section	.text.f_stat,"ax",@progbits
 4482               	.global	f_stat
 4484               	f_stat:
 4485               	.LFB165:
 4486               	.LSM396:
 4487               	.LVL434:
 4488 0000 CF92      		push r12
 4489 0002 DF92      		push r13
 4490 0004 EF92      		push r14
 4491 0006 FF92      		push r15
 4492 0008 1F93      		push r17
 4493 000a DF93      		push r29
 4494 000c CF93      		push r28
 4495 000e CDB7      		in r28,__SP_L__
 4496 0010 DEB7      		in r29,__SP_H__
 4497 0012 A497      		sbiw r28,36
 4498 0014 0FB6      		in __tmp_reg__,__SREG__
 4499 0016 F894      		cli
 4500 0018 DEBF      		out __SP_H__,r29
 4501 001a 0FBE      		out __SREG__,__tmp_reg__
 4502 001c CDBF      		out __SP_L__,r28
 4503               	/* prologue: function */
 4504               	/* frame size = 36 */
 4505 001e 9CA3      		std Y+36,r25
 4506 0020 8BA3      		std Y+35,r24
 4507 0022 6B01      		movw r12,r22
 4508               	.LSM397:
 4509 0024 FDE0      		ldi r31,lo8(13)
 4510 0026 EF2E      		mov r14,r31
 4511 0028 F12C      		mov r15,__zero_reg__
 4512 002a EC0E      		add r14,r28
 4513 002c FD1E      		adc r15,r29
 4514 002e CE01      		movw r24,r28
 4515               	.LVL435:
 4516 0030 8396      		adiw r24,35
 4517 0032 B701      		movw r22,r14
 4518               	.LVL436:
 4519 0034 40E0      		ldi r20,lo8(0)
 4520 0036 0E94 0000 		call chk_mounted
 4521 003a 182F      		mov r17,r24
 4522               	.LVL437:
 4523               	.LSM398:
 4524 003c 8823      		tst r24
 4525 003e 01F4      		brne .L228
 4526               	.LVL438:
 4527               	.LSM399:
 4528 0040 CE01      		movw r24,r28
 4529               	.LVL439:
 4530 0042 0196      		adiw r24,1
 4531 0044 9AA3      		std Y+34,r25
 4532 0046 89A3      		std Y+33,r24
 4533               	.LSM400:
 4534 0048 6BA1      		ldd r22,Y+35
 4535 004a 7CA1      		ldd r23,Y+36
 4536 004c C701      		movw r24,r14
 4537 004e 0E94 0000 		call follow_path
 4538 0052 182F      		mov r17,r24
 4539               	.LSM401:
 4540 0054 8823      		tst r24
 4541 0056 01F4      		brne .L228
 4542               	.LVL440:
 4543               	.LSM402:
 4544 0058 8F8D      		ldd r24,Y+31
 4545 005a 98A1      		ldd r25,Y+32
 4546               	.LVL441:
 4547 005c 892B      		or r24,r25
 4548 005e 01F4      		brne .L229
 4549 0060 16E0      		ldi r17,lo8(6)
 4550 0062 00C0      		rjmp .L228
 4551               	.L229:
 4552               	.LSM403:
 4553 0064 C701      		movw r24,r14
 4554 0066 B601      		movw r22,r12
 4555 0068 0E94 0000 		call get_fileinfo
 4556               	.LVL442:
 4557               	.L228:
 4558               	.LSM404:
 4559 006c 812F      		mov r24,r17
 4560               	/* epilogue start */
 4561 006e A496      		adiw r28,36
 4562 0070 0FB6      		in __tmp_reg__,__SREG__
 4563 0072 F894      		cli
 4564 0074 DEBF      		out __SP_H__,r29
 4565 0076 0FBE      		out __SREG__,__tmp_reg__
 4566 0078 CDBF      		out __SP_L__,r28
 4567 007a CF91      		pop r28
 4568 007c DF91      		pop r29
 4569 007e 1F91      		pop r17
 4570               	.LVL443:
 4571 0080 FF90      		pop r15
 4572 0082 EF90      		pop r14
 4573 0084 DF90      		pop r13
 4574 0086 CF90      		pop r12
 4575               	.LVL444:
 4576 0088 0895      		ret
 4577               	.LFE165:
 4579               		.section	.text.f_opendir,"ax",@progbits
 4580               	.global	f_opendir
 4582               	f_opendir:
 4583               	.LFB163:
 4584               	.LSM405:
 4585               	.LVL445:
 4586 0000 0F93      		push r16
 4587 0002 1F93      		push r17
 4588 0004 DF93      		push r29
 4589 0006 CF93      		push r28
 4590 0008 CDB7      		in r28,__SP_L__
 4591 000a DEB7      		in r29,__SP_H__
 4592 000c 2E97      		sbiw r28,14
 4593 000e 0FB6      		in __tmp_reg__,__SREG__
 4594 0010 F894      		cli
 4595 0012 DEBF      		out __SP_H__,r29
 4596 0014 0FBE      		out __SREG__,__tmp_reg__
 4597 0016 CDBF      		out __SP_L__,r28
 4598               	/* prologue: function */
 4599               	/* frame size = 14 */
 4600 0018 8C01      		movw r16,r24
 4601 001a 7E87      		std Y+14,r23
 4602 001c 6D87      		std Y+13,r22
 4603               	.LSM406:
 4604 001e CE01      		movw r24,r28
 4605               	.LVL446:
 4606 0020 0D96      		adiw r24,13
 4607 0022 B801      		movw r22,r16
 4608               	.LVL447:
 4609 0024 40E0      		ldi r20,lo8(0)
 4610 0026 0E94 0000 		call chk_mounted
 4611               	.LSM407:
 4612 002a 8823      		tst r24
 4613               	.LVL448:
 4614 002c 01F4      		brne .L232
 4615               	.LSM408:
 4616 002e CE01      		movw r24,r28
 4617               	.LVL449:
 4618 0030 0196      		adiw r24,1
 4619 0032 D801      		movw r26,r16
 4620 0034 5596      		adiw r26,20+1
 4621 0036 9C93      		st X,r25
 4622 0038 8E93      		st -X,r24
 4623 003a 5497      		sbiw r26,20
 4624               	.LSM409:
 4625 003c 6D85      		ldd r22,Y+13
 4626 003e 7E85      		ldd r23,Y+14
 4627 0040 C801      		movw r24,r16
 4628 0042 0E94 0000 		call follow_path
 4629               	.LSM410:
 4630 0046 8823      		tst r24
 4631               	.LVL450:
 4632 0048 01F4      		brne .L233
 4633               	.LSM411:
 4634 004a D801      		movw r26,r16
 4635 004c 5296      		adiw r26,18
 4636 004e ED91      		ld r30,X+
 4637 0050 FC91      		ld r31,X
 4638 0052 5397      		sbiw r26,18+1
 4639               	.LVL451:
 4640               	.LSM412:
 4641 0054 3097      		sbiw r30,0
 4642 0056 01F0      		breq .L234
 4643               	.LSM413:
 4644 0058 8385      		ldd r24,Z+11
 4645               	.LVL452:
 4646 005a 84FF      		sbrs r24,4
 4647 005c 00C0      		rjmp .L237
 4648               	.L235:
 4649               	.LSM414:
 4650 005e 8489      		ldd r24,Z+20
 4651 0060 9589      		ldd r25,Z+21
 4652 0062 A0E0      		ldi r26,lo8(0)
 4653 0064 B0E0      		ldi r27,hi8(0)
 4654 0066 DC01      		movw r26,r24
 4655 0068 9927      		clr r25
 4656 006a 8827      		clr r24
 4657 006c 228D      		ldd r18,Z+26
 4658 006e 338D      		ldd r19,Z+27
 4659 0070 40E0      		ldi r20,lo8(0)
 4660 0072 50E0      		ldi r21,hi8(0)
 4661 0074 822B      		or r24,r18
 4662 0076 932B      		or r25,r19
 4663 0078 A42B      		or r26,r20
 4664 007a B52B      		or r27,r21
 4665 007c F801      		movw r30,r16
 4666               	.LVL453:
 4667 007e 8683      		std Z+6,r24
 4668 0080 9783      		std Z+7,r25
 4669 0082 A087      		std Z+8,r26
 4670 0084 B187      		std Z+9,r27
 4671               	.LVL454:
 4672               	.L234:
 4673               	.LSM415:
 4674 0086 D801      		movw r26,r16
 4675 0088 ED91      		ld r30,X+
 4676 008a FC91      		ld r31,X
 4677 008c 1197      		sbiw r26,1
 4678               	.LVL455:
 4679 008e 8681      		ldd r24,Z+6
 4680 0090 9781      		ldd r25,Z+7
 4681               	.LVL456:
 4682 0092 1396      		adiw r26,2+1
 4683 0094 9C93      		st X,r25
 4684 0096 8E93      		st -X,r24
 4685 0098 1297      		sbiw r26,2
 4686               	.LSM416:
 4687 009a C801      		movw r24,r16
 4688 009c 60E0      		ldi r22,lo8(0)
 4689 009e 70E0      		ldi r23,hi8(0)
 4690 00a0 0E94 0000 		call dir_sdi
 4691               	.LVL457:
 4692               	.L233:
 4693               	.LSM417:
 4694 00a4 8430      		cpi r24,lo8(4)
 4695 00a6 01F4      		brne .L232
 4696               	.LVL458:
 4697               	.L237:
 4698 00a8 85E0      		ldi r24,lo8(5)
 4699               	.L232:
 4700               	.LVL459:
 4701               	/* epilogue start */
 4702               	.LSM418:
 4703 00aa 2E96      		adiw r28,14
 4704 00ac 0FB6      		in __tmp_reg__,__SREG__
 4705 00ae F894      		cli
 4706 00b0 DEBF      		out __SP_H__,r29
 4707 00b2 0FBE      		out __SREG__,__tmp_reg__
 4708 00b4 CDBF      		out __SP_L__,r28
 4709 00b6 CF91      		pop r28
 4710 00b8 DF91      		pop r29
 4711 00ba 1F91      		pop r17
 4712 00bc 0F91      		pop r16
 4713               	.LVL460:
 4714 00be 0895      		ret
 4715               	.LFE163:
 4717               		.section	.text.dir_register,"ax",@progbits
 4719               	dir_register:
 4720               	.LFB148:
 4721               	.LSM419:
 4722               	.LVL461:
 4723 0000 FF92      		push r15
 4724 0002 0F93      		push r16
 4725 0004 1F93      		push r17
 4726 0006 CF93      		push r28
 4727 0008 DF93      		push r29
 4728               	/* prologue: function */
 4729               	/* frame size = 0 */
 4730 000a EC01      		movw r28,r24
 4731               	.LSM420:
 4732 000c 60E0      		ldi r22,lo8(0)
 4733 000e 70E0      		ldi r23,hi8(0)
 4734 0010 0E94 0000 		call dir_sdi
 4735               	.LVL462:
 4736               	.L246:
 4737 0014 F82E      		mov r15,r24
 4738               	.LSM421:
 4739 0016 8823      		tst r24
 4740 0018 01F4      		brne .L239
 4741               	.LVL463:
 4742               	.LSM422:
 4743 001a 4E85      		ldd r20,Y+14
 4744 001c 5F85      		ldd r21,Y+15
 4745 001e 6889      		ldd r22,Y+16
 4746 0020 7989      		ldd r23,Y+17
 4747 0022 8881      		ld r24,Y
 4748 0024 9981      		ldd r25,Y+1
 4749               	.LVL464:
 4750 0026 0E94 0000 		call move_window
 4751 002a F82E      		mov r15,r24
 4752               	.LSM423:
 4753 002c 8823      		tst r24
 4754 002e 01F4      		brne .L239
 4755               	.LVL465:
 4756               	.LSM424:
 4757 0030 EA89      		ldd r30,Y+18
 4758 0032 FB89      		ldd r31,Y+19
 4759 0034 E081      		ld r30,Z
 4760               	.LVL466:
 4761               	.LSM425:
 4762 0036 E53E      		cpi r30,lo8(-27)
 4763 0038 01F0      		breq .L240
 4764 003a EE23      		tst r30
 4765 003c 01F0      		breq .L240
 4766               	.LSM426:
 4767 003e CE01      		movw r24,r28
 4768               	.LVL467:
 4769 0040 61E0      		ldi r22,lo8(1)
 4770 0042 70E0      		ldi r23,hi8(1)
 4771 0044 0E94 0000 		call dir_next
 4772               	.LVL468:
 4773 0048 00C0      		rjmp .L246
 4774               	.LVL469:
 4775               	.L247:
 4776               	.LSM427:
 4777 004a 0A89      		ldd r16,Y+18
 4778 004c 1B89      		ldd r17,Y+19
 4779               	.LVL470:
 4780               	.LSM428:
 4781 004e C801      		movw r24,r16
 4782               	.LVL471:
 4783 0050 60E0      		ldi r22,lo8(0)
 4784 0052 70E0      		ldi r23,hi8(0)
 4785 0054 40E2      		ldi r20,lo8(32)
 4786 0056 50E0      		ldi r21,hi8(32)
 4787 0058 0E94 0000 		call mem_set
 4788               	.LSM429:
 4789 005c 6C89      		ldd r22,Y+20
 4790 005e 7D89      		ldd r23,Y+21
 4791 0060 C801      		movw r24,r16
 4792 0062 4BE0      		ldi r20,lo8(11)
 4793 0064 50E0      		ldi r21,hi8(11)
 4794 0066 0E94 0000 		call mem_cpy
 4795               	.LSM430:
 4796 006a E881      		ld r30,Y
 4797 006c F981      		ldd r31,Y+1
 4798 006e 81E0      		ldi r24,lo8(1)
 4799 0070 8483      		std Z+4,r24
 4800               	.LVL472:
 4801               	.L239:
 4802               	.LSM431:
 4803 0072 8F2D      		mov r24,r15
 4804               	/* epilogue start */
 4805 0074 DF91      		pop r29
 4806 0076 CF91      		pop r28
 4807               	.LVL473:
 4808 0078 1F91      		pop r17
 4809 007a 0F91      		pop r16
 4810               	.LVL474:
 4811 007c FF90      		pop r15
 4812               	.LVL475:
 4813 007e 0895      		ret
 4814               	.LVL476:
 4815               	.L240:
 4816               	.LSM432:
 4817 0080 4E85      		ldd r20,Y+14
 4818 0082 5F85      		ldd r21,Y+15
 4819 0084 6889      		ldd r22,Y+16
 4820 0086 7989      		ldd r23,Y+17
 4821 0088 8881      		ld r24,Y
 4822 008a 9981      		ldd r25,Y+1
 4823               	.LVL477:
 4824 008c 0E94 0000 		call move_window
 4825               	.LVL478:
 4826 0090 F82E      		mov r15,r24
 4827               	.LSM433:
 4828 0092 8823      		tst r24
 4829 0094 01F4      		brne .L239
 4830               	.LVL479:
 4831 0096 00C0      		rjmp .L247
 4832               	.LFE148:
 4834               		.section	.text.dir_read,"ax",@progbits
 4836               	dir_read:
 4837               	.LFB147:
 4838               	.LSM434:
 4839               	.LVL480:
 4840 0000 CF93      		push r28
 4841 0002 DF93      		push r29
 4842               	/* prologue: function */
 4843               	/* frame size = 0 */
 4844 0004 EC01      		movw r28,r24
 4845               	.LSM435:
 4846 0006 94E0      		ldi r25,lo8(4)
 4847               	.LVL481:
 4848 0008 00C0      		rjmp .L249
 4849               	.LVL482:
 4850               	.L254:
 4851               	.LSM436:
 4852 000a 8881      		ld r24,Y
 4853 000c 9981      		ldd r25,Y+1
 4854 000e 0E94 0000 		call move_window
 4855               	.LVL483:
 4856 0012 982F      		mov r25,r24
 4857               	.LVL484:
 4858               	.LSM437:
 4859 0014 8823      		tst r24
 4860 0016 01F4      		brne .L250
 4861               	.LVL485:
 4862               	.LSM438:
 4863 0018 EA89      		ldd r30,Y+18
 4864 001a FB89      		ldd r31,Y+19
 4865               	.LVL486:
 4866               	.LSM439:
 4867 001c 8081      		ld r24,Z
 4868               	.LVL487:
 4869               	.LSM440:
 4870 001e 8823      		tst r24
 4871 0020 01F0      		breq .L251
 4872               	.LSM441:
 4873 0022 853E      		cpi r24,lo8(-27)
 4874 0024 01F0      		breq .L252
 4875 0026 8E32      		cpi r24,lo8(46)
 4876 0028 01F0      		breq .L252
 4877 002a 8385      		ldd r24,Z+11
 4878               	.LVL488:
 4879 002c 83FF      		sbrs r24,3
 4880 002e 00C0      		rjmp .L253
 4881               	.LVL489:
 4882               	.L252:
 4883               	.LSM442:
 4884 0030 CE01      		movw r24,r28
 4885               	.LVL490:
 4886 0032 60E0      		ldi r22,lo8(0)
 4887 0034 70E0      		ldi r23,hi8(0)
 4888 0036 0E94 0000 		call dir_next
 4889               	.LVL491:
 4890 003a 982F      		mov r25,r24
 4891               	.LVL492:
 4892               	.LSM443:
 4893 003c 8823      		tst r24
 4894 003e 01F4      		brne .L250
 4895               	.LVL493:
 4896               	.L249:
 4897               	.LSM444:
 4898 0040 4E85      		ldd r20,Y+14
 4899 0042 5F85      		ldd r21,Y+15
 4900 0044 6889      		ldd r22,Y+16
 4901 0046 7989      		ldd r23,Y+17
 4902 0048 4115      		cp r20,__zero_reg__
 4903 004a 5105      		cpc r21,__zero_reg__
 4904 004c 6105      		cpc r22,__zero_reg__
 4905 004e 7105      		cpc r23,__zero_reg__
 4906 0050 01F4      		brne .L254
 4907               	.LSM445:
 4908 0052 9923      		tst r25
 4909 0054 01F0      		breq .L253
 4910               	.LVL494:
 4911               	.L250:
 4912 0056 1E86      		std Y+14,__zero_reg__
 4913 0058 1F86      		std Y+15,__zero_reg__
 4914 005a 188A      		std Y+16,__zero_reg__
 4915 005c 198A      		std Y+17,__zero_reg__
 4916               	.L253:
 4917               	.LSM446:
 4918 005e 892F      		mov r24,r25
 4919               	.LVL495:
 4920               	/* epilogue start */
 4921 0060 DF91      		pop r29
 4922 0062 CF91      		pop r28
 4923               	.LVL496:
 4924 0064 0895      		ret
 4925               	.LVL497:
 4926               	.L251:
 4927               	.LSM447:
 4928 0066 94E0      		ldi r25,lo8(4)
 4929 0068 00C0      		rjmp .L250
 4930               	.LFE147:
 4932               		.section	.text.f_readdir,"ax",@progbits
 4933               	.global	f_readdir
 4935               	f_readdir:
 4936               	.LFB164:
 4937               	.LSM448:
 4938               	.LVL498:
 4939 0000 EF92      		push r14
 4940 0002 FF92      		push r15
 4941 0004 0F93      		push r16
 4942 0006 1F93      		push r17
 4943 0008 DF93      		push r29
 4944 000a CF93      		push r28
 4945 000c CDB7      		in r28,__SP_L__
 4946 000e DEB7      		in r29,__SP_H__
 4947 0010 2C97      		sbiw r28,12
 4948 0012 0FB6      		in __tmp_reg__,__SREG__
 4949 0014 F894      		cli
 4950 0016 DEBF      		out __SP_H__,r29
 4951 0018 0FBE      		out __SREG__,__tmp_reg__
 4952 001a CDBF      		out __SP_L__,r28
 4953               	/* prologue: function */
 4954               	/* frame size = 12 */
 4955 001c 8C01      		movw r16,r24
 4956 001e 7B01      		movw r14,r22
 4957               	.LSM449:
 4958 0020 FC01      		movw r30,r24
 4959 0022 6281      		ldd r22,Z+2
 4960 0024 7381      		ldd r23,Z+3
 4961               	.LVL499:
 4962 0026 8081      		ld r24,Z
 4963 0028 9181      		ldd r25,Z+1
 4964               	.LVL500:
 4965 002a 0E94 0000 		call validate
 4966               	.LSM450:
 4967 002e 8823      		tst r24
 4968               	.LVL501:
 4969 0030 01F4      		brne .L258
 4970               	.LSM451:
 4971 0032 E114      		cp r14,__zero_reg__
 4972 0034 F104      		cpc r15,__zero_reg__
 4973 0036 01F4      		brne .L259
 4974               	.LSM452:
 4975 0038 C801      		movw r24,r16
 4976               	.LVL502:
 4977 003a 60E0      		ldi r22,lo8(0)
 4978 003c 70E0      		ldi r23,hi8(0)
 4979 003e 0E94 0000 		call dir_sdi
 4980 0042 00C0      		rjmp .L258
 4981               	.LVL503:
 4982               	.L259:
 4983               	.LSM453:
 4984 0044 CE01      		movw r24,r28
 4985               	.LVL504:
 4986 0046 0196      		adiw r24,1
 4987 0048 F801      		movw r30,r16
 4988 004a 958B      		std Z+21,r25
 4989 004c 848B      		std Z+20,r24
 4990               	.LSM454:
 4991 004e C801      		movw r24,r16
 4992 0050 0E94 0000 		call dir_read
 4993               	.LSM455:
 4994 0054 8430      		cpi r24,lo8(4)
 4995               	.LVL505:
 4996 0056 01F4      		brne .L260
 4997               	.LSM456:
 4998 0058 F801      		movw r30,r16
 4999 005a 1686      		std Z+14,__zero_reg__
 5000 005c 1786      		std Z+15,__zero_reg__
 5001 005e 108A      		std Z+16,__zero_reg__
 5002 0060 118A      		std Z+17,__zero_reg__
 5003 0062 00C0      		rjmp .L261
 5004               	.L260:
 5005               	.LSM457:
 5006 0064 8823      		tst r24
 5007 0066 01F4      		brne .L258
 5008               	.L261:
 5009               	.LSM458:
 5010 0068 C801      		movw r24,r16
 5011               	.LVL506:
 5012 006a B701      		movw r22,r14
 5013 006c 0E94 0000 		call get_fileinfo
 5014               	.LSM459:
 5015 0070 C801      		movw r24,r16
 5016 0072 60E0      		ldi r22,lo8(0)
 5017 0074 70E0      		ldi r23,hi8(0)
 5018 0076 0E94 0000 		call dir_next
 5019               	.LSM460:
 5020 007a 8430      		cpi r24,lo8(4)
 5021               	.LVL507:
 5022 007c 01F4      		brne .L258
 5023               	.LSM461:
 5024 007e F801      		movw r30,r16
 5025 0080 1686      		std Z+14,__zero_reg__
 5026 0082 1786      		std Z+15,__zero_reg__
 5027 0084 108A      		std Z+16,__zero_reg__
 5028 0086 118A      		std Z+17,__zero_reg__
 5029 0088 80E0      		ldi r24,lo8(0)
 5030               	.L258:
 5031               	.LVL508:
 5032               	/* epilogue start */
 5033               	.LSM462:
 5034 008a 2C96      		adiw r28,12
 5035 008c 0FB6      		in __tmp_reg__,__SREG__
 5036 008e F894      		cli
 5037 0090 DEBF      		out __SP_H__,r29
 5038 0092 0FBE      		out __SREG__,__tmp_reg__
 5039 0094 CDBF      		out __SP_L__,r28
 5040 0096 CF91      		pop r28
 5041 0098 DF91      		pop r29
 5042 009a 1F91      		pop r17
 5043 009c 0F91      		pop r16
 5044               	.LVL509:
 5045 009e FF90      		pop r15
 5046 00a0 EF90      		pop r14
 5047               	.LVL510:
 5048 00a2 0895      		ret
 5049               	.LFE164:
 5051               		.section	.text.f_getfree,"ax",@progbits
 5052               	.global	f_getfree
 5054               	f_getfree:
 5055               	.LFB166:
 5056               	.LSM463:
 5057               	.LVL511:
 5058 0000 3F92      		push r3
 5059 0002 4F92      		push r4
 5060 0004 5F92      		push r5
 5061 0006 6F92      		push r6
 5062 0008 7F92      		push r7
 5063 000a 8F92      		push r8
 5064 000c 9F92      		push r9
 5065 000e AF92      		push r10
 5066 0010 BF92      		push r11
 5067 0012 CF92      		push r12
 5068 0014 DF92      		push r13
 5069 0016 EF92      		push r14
 5070 0018 FF92      		push r15
 5071 001a 0F93      		push r16
 5072 001c 1F93      		push r17
 5073 001e DF93      		push r29
 5074 0020 CF93      		push r28
 5075 0022 00D0      		rcall .
 5076 0024 00D0      		rcall .
 5077 0026 CDB7      		in r28,__SP_L__
 5078 0028 DEB7      		in r29,__SP_H__
 5079               	/* prologue: function */
 5080               	/* frame size = 4 */
 5081 002a 9A83      		std Y+2,r25
 5082 002c 8983      		std Y+1,r24
 5083 002e 7C83      		std Y+4,r23
 5084 0030 6B83      		std Y+3,r22
 5085 0032 2A01      		movw r4,r20
 5086               	.LSM464:
 5087 0034 CE01      		movw r24,r28
 5088               	.LVL512:
 5089 0036 0196      		adiw r24,1
 5090 0038 BA01      		movw r22,r20
 5091               	.LVL513:
 5092 003a 40E0      		ldi r20,lo8(0)
 5093               	.LVL514:
 5094 003c 0E94 0000 		call chk_mounted
 5095 0040 682F      		mov r22,r24
 5096               	.LVL515:
 5097               	.LSM465:
 5098 0042 8823      		tst r24
 5099 0044 01F0      		breq .+2
 5100 0046 00C0      		rjmp .L264
 5101               	.LVL516:
 5102               	.LSM466:
 5103 0048 D201      		movw r26,r4
 5104 004a ED91      		ld r30,X+
 5105 004c FC91      		ld r31,X
 5106 004e 2685      		ldd r18,Z+14
 5107 0050 3785      		ldd r19,Z+15
 5108 0052 4089      		ldd r20,Z+16
 5109 0054 5189      		ldd r21,Z+17
 5110 0056 E688      		ldd r14,Z+22
 5111 0058 F788      		ldd r15,Z+23
 5112 005a 008D      		ldd r16,Z+24
 5113 005c 118D      		ldd r17,Z+25
 5114               	.LVL517:
 5115 005e D801      		movw r26,r16
 5116 0060 C701      		movw r24,r14
 5117               	.LVL518:
 5118 0062 0297      		sbiw r24,2
 5119 0064 A109      		sbc r26,__zero_reg__
 5120 0066 B109      		sbc r27,__zero_reg__
 5121 0068 8217      		cp r24,r18
 5122 006a 9307      		cpc r25,r19
 5123 006c A407      		cpc r26,r20
 5124 006e B507      		cpc r27,r21
 5125 0070 00F0      		brlo .L265
 5126               	.LSM467:
 5127 0072 EB81      		ldd r30,Y+3
 5128 0074 FC81      		ldd r31,Y+4
 5129 0076 2083      		st Z,r18
 5130 0078 3183      		std Z+1,r19
 5131 007a 4283      		std Z+2,r20
 5132 007c 5383      		std Z+3,r21
 5133 007e 00C0      		rjmp .L264
 5134               	.L265:
 5135               	.LSM468:
 5136 0080 3080      		ld r3,Z
 5137               	.LVL519:
 5138               	.LSM469:
 5139 0082 21E0      		ldi r18,lo8(1)
 5140 0084 3216      		cp r3,r18
 5141 0086 01F4      		brne .L266
 5142 0088 AA24      		clr r10
 5143 008a BB24      		clr r11
 5144 008c 6501      		movw r12,r10
 5145               	.LVL520:
 5146 008e 32E0      		ldi r19,lo8(2)
 5147 0090 E32E      		mov r14,r19
 5148 0092 F12C      		mov r15,__zero_reg__
 5149 0094 012D      		mov r16,__zero_reg__
 5150 0096 112D      		mov r17,__zero_reg__
 5151               	.LVL521:
 5152               	.L271:
 5153               	.LSM470:
 5154 0098 D201      		movw r26,r4
 5155 009a 8D91      		ld r24,X+
 5156 009c 9C91      		ld r25,X
 5157 009e B801      		movw r22,r16
 5158 00a0 A701      		movw r20,r14
 5159 00a2 0E94 0000 		call get_fat
 5160               	.LVL522:
 5161               	.LSM471:
 5162 00a6 6F3F      		cpi r22,lo8(-1)
 5163 00a8 BFEF      		ldi r27,hi8(-1)
 5164 00aa 7B07      		cpc r23,r27
 5165 00ac BFEF      		ldi r27,hlo8(-1)
 5166 00ae 8B07      		cpc r24,r27
 5167 00b0 BFEF      		ldi r27,hhi8(-1)
 5168 00b2 9B07      		cpc r25,r27
 5169               	.LVL523:
 5170 00b4 01F4      		brne .L267
 5171 00b6 91E0      		ldi r25,lo8(1)
 5172               	.LVL524:
 5173 00b8 00C0      		rjmp .L268
 5174               	.LVL525:
 5175               	.L267:
 5176               	.LSM472:
 5177 00ba 6130      		cpi r22,lo8(1)
 5178 00bc 7105      		cpc r23,__zero_reg__
 5179 00be 8105      		cpc r24,__zero_reg__
 5180 00c0 9105      		cpc r25,__zero_reg__
 5181 00c2 01F4      		brne .L269
 5182 00c4 92E0      		ldi r25,lo8(2)
 5183               	.LVL526:
 5184 00c6 00C0      		rjmp .L268
 5185               	.LVL527:
 5186               	.L269:
 5187               	.LSM473:
 5188 00c8 6115      		cp r22,__zero_reg__
 5189 00ca 7105      		cpc r23,__zero_reg__
 5190 00cc 8105      		cpc r24,__zero_reg__
 5191 00ce 9105      		cpc r25,__zero_reg__
 5192 00d0 01F4      		brne .L270
 5193 00d2 0894      		sec
 5194 00d4 A11C      		adc r10,__zero_reg__
 5195 00d6 B11C      		adc r11,__zero_reg__
 5196 00d8 C11C      		adc r12,__zero_reg__
 5197 00da D11C      		adc r13,__zero_reg__
 5198               	.L270:
 5199               	.LSM474:
 5200 00dc 0894      		sec
 5201 00de E11C      		adc r14,__zero_reg__
 5202 00e0 F11C      		adc r15,__zero_reg__
 5203 00e2 011D      		adc r16,__zero_reg__
 5204 00e4 111D      		adc r17,__zero_reg__
 5205 00e6 D201      		movw r26,r4
 5206 00e8 ED91      		ld r30,X+
 5207 00ea FC91      		ld r31,X
 5208 00ec 8689      		ldd r24,Z+22
 5209 00ee 9789      		ldd r25,Z+23
 5210 00f0 A08D      		ldd r26,Z+24
 5211 00f2 B18D      		ldd r27,Z+25
 5212 00f4 E816      		cp r14,r24
 5213 00f6 F906      		cpc r15,r25
 5214 00f8 0A07      		cpc r16,r26
 5215 00fa 1B07      		cpc r17,r27
 5216 00fc 00F0      		brlo .L271
 5217 00fe 00C0      		rjmp .L272
 5218               	.LVL528:
 5219               	.L266:
 5220               	.LSM475:
 5221 0100 668C      		ldd r6,Z+30
 5222 0102 778C      		ldd r7,Z+31
 5223 0104 80A0      		ldd r8,Z+32
 5224 0106 91A0      		ldd r9,Z+33
 5225               	.LVL529:
 5226 0108 AA24      		clr r10
 5227 010a BB24      		clr r11
 5228 010c 6501      		movw r12,r10
 5229               	.LVL530:
 5230 010e 20E0      		ldi r18,lo8(0)
 5231 0110 30E0      		ldi r19,hi8(0)
 5232               	.LVL531:
 5233 0112 E0E0      		ldi r30,lo8(0)
 5234 0114 F0E0      		ldi r31,hi8(0)
 5235               	.LVL532:
 5236               	.L278:
 5237               	.LSM476:
 5238 0116 2115      		cp r18,__zero_reg__
 5239 0118 3105      		cpc r19,__zero_reg__
 5240 011a 01F4      		brne .L273
 5241               	.LSM477:
 5242 011c F201      		movw r30,r4
 5243               	.LVL533:
 5244 011e 8081      		ld r24,Z
 5245 0120 9181      		ldd r25,Z+1
 5246 0122 B401      		movw r22,r8
 5247 0124 A301      		movw r20,r6
 5248 0126 0E94 0000 		call move_window
 5249               	.LVL534:
 5250 012a 982F      		mov r25,r24
 5251               	.LVL535:
 5252               	.LSM478:
 5253 012c 8823      		tst r24
 5254 012e 01F4      		brne .L268
 5255               	.LVL536:
 5256               	.LSM479:
 5257 0130 0894      		sec
 5258 0132 611C      		adc r6,__zero_reg__
 5259 0134 711C      		adc r7,__zero_reg__
 5260 0136 811C      		adc r8,__zero_reg__
 5261 0138 911C      		adc r9,__zero_reg__
 5262               	.LSM480:
 5263 013a D201      		movw r26,r4
 5264 013c ED91      		ld r30,X+
 5265 013e FC91      		ld r31,X
 5266               	.LVL537:
 5267 0140 BE96      		adiw r30,46
 5268 0142 20E0      		ldi r18,lo8(512)
 5269 0144 32E0      		ldi r19,hi8(512)
 5270               	.LVL538:
 5271               	.L273:
 5272               	.LSM481:
 5273 0146 B2E0      		ldi r27,lo8(2)
 5274 0148 3B16      		cp r3,r27
 5275 014a 01F4      		brne .L274
 5276               	.LVL539:
 5277               	.LSM482:
 5278 014c 8081      		ld r24,Z
 5279 014e 9181      		ldd r25,Z+1
 5280 0150 892B      		or r24,r25
 5281 0152 01F4      		brne .L275
 5282 0154 0894      		sec
 5283 0156 A11C      		adc r10,__zero_reg__
 5284 0158 B11C      		adc r11,__zero_reg__
 5285 015a C11C      		adc r12,__zero_reg__
 5286 015c D11C      		adc r13,__zero_reg__
 5287               	.L275:
 5288               	.LSM483:
 5289 015e 3296      		adiw r30,2
 5290 0160 2250      		subi r18,lo8(-(-2))
 5291 0162 3040      		sbci r19,hi8(-(-2))
 5292 0164 00C0      		rjmp .L276
 5293               	.LVL540:
 5294               	.L274:
 5295               	.LSM484:
 5296 0166 8081      		ld r24,Z
 5297 0168 9181      		ldd r25,Z+1
 5298 016a A281      		ldd r26,Z+2
 5299 016c B381      		ldd r27,Z+3
 5300 016e BF70      		andi r27,hhi8(268435455)
 5301 0170 0097      		sbiw r24,0
 5302 0172 A105      		cpc r26,__zero_reg__
 5303 0174 B105      		cpc r27,__zero_reg__
 5304 0176 01F4      		brne .L277
 5305 0178 0894      		sec
 5306 017a A11C      		adc r10,__zero_reg__
 5307 017c B11C      		adc r11,__zero_reg__
 5308 017e C11C      		adc r12,__zero_reg__
 5309 0180 D11C      		adc r13,__zero_reg__
 5310               	.L277:
 5311               	.LSM485:
 5312 0182 3496      		adiw r30,4
 5313 0184 2450      		subi r18,lo8(-(-4))
 5314 0186 3040      		sbci r19,hi8(-(-4))
 5315               	.L276:
 5316               	.LSM486:
 5317 0188 0894      		sec
 5318 018a E108      		sbc r14,__zero_reg__
 5319 018c F108      		sbc r15,__zero_reg__
 5320 018e 0109      		sbc r16,__zero_reg__
 5321 0190 1109      		sbc r17,__zero_reg__
 5322 0192 E114      		cp r14,__zero_reg__
 5323 0194 F104      		cpc r15,__zero_reg__
 5324 0196 0105      		cpc r16,__zero_reg__
 5325 0198 1105      		cpc r17,__zero_reg__
 5326 019a 01F0      		breq .+2
 5327 019c 00C0      		rjmp .L278
 5328               	.LVL541:
 5329               	.L272:
 5330 019e 90E0      		ldi r25,lo8(0)
 5331               	.LVL542:
 5332               	.L268:
 5333               	.LSM487:
 5334 01a0 D201      		movw r26,r4
 5335 01a2 ED91      		ld r30,X+
 5336 01a4 FC91      		ld r31,X
 5337               	.LVL543:
 5338 01a6 A686      		std Z+14,r10
 5339 01a8 B786      		std Z+15,r11
 5340 01aa C08A      		std Z+16,r12
 5341 01ac D18A      		std Z+17,r13
 5342               	.LSM488:
 5343 01ae B3E0      		ldi r27,lo8(3)
 5344 01b0 3B16      		cp r3,r27
 5345 01b2 01F4      		brne .L279
 5346 01b4 D201      		movw r26,r4
 5347 01b6 ED91      		ld r30,X+
 5348 01b8 FC91      		ld r31,X
 5349 01ba 81E0      		ldi r24,lo8(1)
 5350 01bc 8583      		std Z+5,r24
 5351               	.LVL544:
 5352               	.L279:
 5353               	.LSM489:
 5354 01be EB81      		ldd r30,Y+3
 5355 01c0 FC81      		ldd r31,Y+4
 5356 01c2 A082      		st Z,r10
 5357 01c4 B182      		std Z+1,r11
 5358 01c6 C282      		std Z+2,r12
 5359 01c8 D382      		std Z+3,r13
 5360 01ca 692F      		mov r22,r25
 5361               	.LVL545:
 5362               	.L264:
 5363               	.LSM490:
 5364 01cc 862F      		mov r24,r22
 5365               	/* epilogue start */
 5366 01ce 0F90      		pop __tmp_reg__
 5367 01d0 0F90      		pop __tmp_reg__
 5368 01d2 0F90      		pop __tmp_reg__
 5369 01d4 0F90      		pop __tmp_reg__
 5370 01d6 CF91      		pop r28
 5371 01d8 DF91      		pop r29
 5372 01da 1F91      		pop r17
 5373 01dc 0F91      		pop r16
 5374 01de FF90      		pop r15
 5375 01e0 EF90      		pop r14
 5376               	.LVL546:
 5377 01e2 DF90      		pop r13
 5378 01e4 CF90      		pop r12
 5379 01e6 BF90      		pop r11
 5380 01e8 AF90      		pop r10
 5381               	.LVL547:
 5382 01ea 9F90      		pop r9
 5383 01ec 8F90      		pop r8
 5384 01ee 7F90      		pop r7
 5385 01f0 6F90      		pop r6
 5386               	.LVL548:
 5387 01f2 5F90      		pop r5
 5388 01f4 4F90      		pop r4
 5389               	.LVL549:
 5390 01f6 3F90      		pop r3
 5391               	.LVL550:
 5392 01f8 0895      		ret
 5393               	.LFE166:
 5395               		.section	.text.f_read,"ax",@progbits
 5396               	.global	f_read
 5398               	f_read:
 5399               	.LFB158:
 5400               	.LSM491:
 5401               	.LVL551:
 5402 0000 2F92      		push r2
 5403 0002 3F92      		push r3
 5404 0004 4F92      		push r4
 5405 0006 5F92      		push r5
 5406 0008 6F92      		push r6
 5407 000a 7F92      		push r7
 5408 000c 8F92      		push r8
 5409 000e 9F92      		push r9
 5410 0010 AF92      		push r10
 5411 0012 BF92      		push r11
 5412 0014 CF92      		push r12
 5413 0016 DF92      		push r13
 5414 0018 EF92      		push r14
 5415 001a FF92      		push r15
 5416 001c 0F93      		push r16
 5417 001e 1F93      		push r17
 5418 0020 CF93      		push r28
 5419 0022 DF93      		push r29
 5420               	/* prologue: function */
 5421               	/* frame size = 0 */
 5422 0024 EC01      		movw r28,r24
 5423 0026 162F      		mov r17,r22
 5424 0028 072F      		mov r16,r23
 5425               	.LVL552:
 5426 002a 3A01      		movw r6,r20
 5427 002c 1901      		movw r2,r18
 5428               	.LSM492:
 5429 002e F901      		movw r30,r18
 5430 0030 1182      		std Z+1,__zero_reg__
 5431 0032 1082      		st Z,__zero_reg__
 5432               	.LSM493:
 5433 0034 6A81      		ldd r22,Y+2
 5434 0036 7B81      		ldd r23,Y+3
 5435               	.LVL553:
 5436 0038 8881      		ld r24,Y
 5437 003a 9981      		ldd r25,Y+1
 5438               	.LVL554:
 5439 003c 0E94 0000 		call validate
 5440               	.LVL555:
 5441 0040 882E      		mov r8,r24
 5442               	.LVL556:
 5443               	.LSM494:
 5444 0042 8823      		tst r24
 5445 0044 01F0      		breq .+2
 5446 0046 00C0      		rjmp .L284
 5447               	.LVL557:
 5448               	.LSM495:
 5449 0048 8C81      		ldd r24,Y+4
 5450               	.LVL558:
 5451 004a 87FD      		sbrc r24,7
 5452 004c 00C0      		rjmp .L305
 5453               	.L285:
 5454               	.LSM496:
 5455 004e 80FD      		sbrc r24,0
 5456 0050 00C0      		rjmp .L286
 5457 0052 07E0      		ldi r16,lo8(7)
 5458 0054 802E      		mov r8,r16
 5459               	.LVL559:
 5460 0056 00C0      		rjmp .L284
 5461               	.LVL560:
 5462               	.L286:
 5463               	.LSM497:
 5464 0058 2A85      		ldd r18,Y+10
 5465 005a 3B85      		ldd r19,Y+11
 5466 005c 4C85      		ldd r20,Y+12
 5467 005e 5D85      		ldd r21,Y+13
 5468               	.LVL561:
 5469 0060 8E81      		ldd r24,Y+6
 5470 0062 9F81      		ldd r25,Y+7
 5471 0064 A885      		ldd r26,Y+8
 5472 0066 B985      		ldd r27,Y+9
 5473 0068 281B      		sub r18,r24
 5474 006a 390B      		sbc r19,r25
 5475 006c 4A0B      		sbc r20,r26
 5476 006e 5B0B      		sbc r21,r27
 5477               	.LSM498:
 5478 0070 C301      		movw r24,r6
 5479 0072 A0E0      		ldi r26,lo8(0)
 5480 0074 B0E0      		ldi r27,hi8(0)
 5481               	.LVL562:
 5482 0076 2817      		cp r18,r24
 5483 0078 3907      		cpc r19,r25
 5484 007a 4A07      		cpc r20,r26
 5485 007c 5B07      		cpc r21,r27
 5486 007e 00F4      		brsh .L287
 5487               	.LVL563:
 5488 0080 3901      		movw r6,r18
 5489               	.LVL564:
 5490               	.L287:
 5491               	.LSM499:
 5492 0082 812F      		mov r24,r17
 5493               	.LVL565:
 5494 0084 902F      		mov r25,r16
 5495               	.LVL566:
 5496 0086 9C01      		movw r18,r24
 5497               	.LVL567:
 5498 0088 2901      		movw r4,r18
 5499               	.LVL568:
 5500 008a 00C0      		rjmp .L288
 5501               	.LVL569:
 5502               	.L303:
 5503               	.LSM500:
 5504 008c 2E81      		ldd r18,Y+6
 5505 008e 3F81      		ldd r19,Y+7
 5506 0090 4885      		ldd r20,Y+8
 5507 0092 5985      		ldd r21,Y+9
 5508 0094 DA01      		movw r26,r20
 5509 0096 C901      		movw r24,r18
 5510 0098 9170      		andi r25,hi8(511)
 5511 009a A070      		andi r26,hlo8(511)
 5512 009c B070      		andi r27,hhi8(511)
 5513 009e 0097      		sbiw r24,0
 5514 00a0 A105      		cpc r26,__zero_reg__
 5515 00a2 B105      		cpc r27,__zero_reg__
 5516 00a4 01F0      		breq .+2
 5517 00a6 00C0      		rjmp .L289
 5518               	.LSM501:
 5519 00a8 E881      		ld r30,Y
 5520 00aa F981      		ldd r31,Y+1
 5521 00ac DA01      		movw r26,r20
 5522 00ae C901      		movw r24,r18
 5523 00b0 19E0      		ldi r17,9
 5524 00b2 B695      	1:	lsr r27
 5525 00b4 A795      		ror r26
 5526 00b6 9795      		ror r25
 5527 00b8 8795      		ror r24
 5528 00ba 1A95      		dec r17
 5529 00bc 01F4      		brne 1b
 5530               	.LVL570:
 5531 00be 9280      		ldd r9,Z+2
 5532 00c0 9A94      		dec r9
 5533 00c2 9822      		and r9,r24
 5534               	.LSM502:
 5535 00c4 01F4      		brne .L290
 5536               	.LSM503:
 5537 00c6 2115      		cp r18,__zero_reg__
 5538 00c8 3105      		cpc r19,__zero_reg__
 5539 00ca 4105      		cpc r20,__zero_reg__
 5540 00cc 5105      		cpc r21,__zero_reg__
 5541 00ce 01F4      		brne .L291
 5542 00d0 6E85      		ldd r22,Y+14
 5543 00d2 7F85      		ldd r23,Y+15
 5544 00d4 8889      		ldd r24,Y+16
 5545 00d6 9989      		ldd r25,Y+17
 5546               	.LVL571:
 5547 00d8 00C0      		rjmp .L292
 5548               	.LVL572:
 5549               	.L291:
 5550 00da 4A89      		ldd r20,Y+18
 5551 00dc 5B89      		ldd r21,Y+19
 5552 00de 6C89      		ldd r22,Y+20
 5553 00e0 7D89      		ldd r23,Y+21
 5554 00e2 CF01      		movw r24,r30
 5555 00e4 0E94 0000 		call get_fat
 5556               	.LVL573:
 5557               	.L292:
 5558               	.LSM504:
 5559 00e8 6230      		cpi r22,lo8(2)
 5560 00ea 7105      		cpc r23,__zero_reg__
 5561 00ec 8105      		cpc r24,__zero_reg__
 5562 00ee 9105      		cpc r25,__zero_reg__
 5563 00f0 00F4      		brsh .L293
 5564               	.LVL574:
 5565               	.L307:
 5566 00f2 8C81      		ldd r24,Y+4
 5567 00f4 8068      		ori r24,lo8(-128)
 5568 00f6 8C83      		std Y+4,r24
 5569               	.LVL575:
 5570               	.L305:
 5571 00f8 E2E0      		ldi r30,lo8(2)
 5572 00fa 8E2E      		mov r8,r30
 5573 00fc 00C0      		rjmp .L284
 5574               	.LVL576:
 5575               	.L293:
 5576               	.LSM505:
 5577 00fe 6F3F      		cpi r22,lo8(-1)
 5578 0100 FFEF      		ldi r31,hi8(-1)
 5579 0102 7F07      		cpc r23,r31
 5580 0104 FFEF      		ldi r31,hlo8(-1)
 5581 0106 8F07      		cpc r24,r31
 5582 0108 FFEF      		ldi r31,hhi8(-1)
 5583 010a 9F07      		cpc r25,r31
 5584 010c 01F4      		brne .+2
 5585 010e 00C0      		rjmp .L306
 5586               	.L294:
 5587               	.LSM506:
 5588 0110 6A8B      		std Y+18,r22
 5589 0112 7B8B      		std Y+19,r23
 5590 0114 8C8B      		std Y+20,r24
 5591 0116 9D8B      		std Y+21,r25
 5592               	.L290:
 5593               	.LSM507:
 5594 0118 0881      		ld r16,Y
 5595 011a 1981      		ldd r17,Y+1
 5596               	.LVL577:
 5597 011c 4A89      		ldd r20,Y+18
 5598 011e 5B89      		ldd r21,Y+19
 5599 0120 6C89      		ldd r22,Y+20
 5600 0122 7D89      		ldd r23,Y+21
 5601 0124 C801      		movw r24,r16
 5602 0126 0E94 0000 		call clust2sect
 5603               	.LVL578:
 5604               	.LSM508:
 5605 012a 6115      		cp r22,__zero_reg__
 5606 012c 7105      		cpc r23,__zero_reg__
 5607 012e 8105      		cpc r24,__zero_reg__
 5608 0130 9105      		cpc r25,__zero_reg__
 5609 0132 01F0      		breq .L307
 5610               	.LVL579:
 5611               	.L295:
 5612               	.LSM509:
 5613 0134 6B01      		movw r12,r22
 5614 0136 7C01      		movw r14,r24
 5615 0138 C90C      		add r12,r9
 5616 013a D11C      		adc r13,__zero_reg__
 5617 013c E11C      		adc r14,__zero_reg__
 5618 013e F11C      		adc r15,__zero_reg__
 5619               	.LVL580:
 5620               	.LSM510:
 5621 0140 5301      		movw r10,r6
 5622 0142 AB2C      		mov r10,r11
 5623 0144 BB24      		clr r11
 5624 0146 A694      		lsr r10
 5625               	.LSM511:
 5626 0148 A114      		cp r10,__zero_reg__
 5627 014a B104      		cpc r11,__zero_reg__
 5628 014c 01F4      		brne .+2
 5629 014e 00C0      		rjmp .L296
 5630               	.LSM512:
 5631 0150 F801      		movw r30,r16
 5632 0152 2281      		ldd r18,Z+2
 5633 0154 492D      		mov r20,r9
 5634 0156 50E0      		ldi r21,lo8(0)
 5635               	.LVL581:
 5636 0158 C501      		movw r24,r10
 5637 015a 840F      		add r24,r20
 5638 015c 951F      		adc r25,r21
 5639 015e 30E0      		ldi r19,lo8(0)
 5640 0160 2817      		cp r18,r24
 5641 0162 3907      		cpc r19,r25
 5642 0164 00F4      		brsh .L297
 5643               	.LVL582:
 5644               	.LSM513:
 5645 0166 5901      		movw r10,r18
 5646 0168 A41A      		sub r10,r20
 5647 016a B50A      		sbc r11,r21
 5648               	.L297:
 5649               	.LSM514:
 5650 016c F801      		movw r30,r16
 5651 016e 8181      		ldd r24,Z+1
 5652 0170 B201      		movw r22,r4
 5653 0172 A701      		movw r20,r14
 5654 0174 9601      		movw r18,r12
 5655 0176 0A2D      		mov r16,r10
 5656 0178 0E94 0000 		call disk_read
 5657               	.LVL583:
 5658 017c 8823      		tst r24
 5659 017e 01F4      		brne .L306
 5660               	.L298:
 5661               	.LSM515:
 5662 0180 E881      		ld r30,Y
 5663 0182 F981      		ldd r31,Y+1
 5664 0184 8481      		ldd r24,Z+4
 5665 0186 8823      		tst r24
 5666 0188 01F0      		breq .L299
 5667 018a 22A5      		ldd r18,Z+42
 5668 018c 33A5      		ldd r19,Z+43
 5669 018e 44A5      		ldd r20,Z+44
 5670 0190 55A5      		ldd r21,Z+45
 5671 0192 2C19      		sub r18,r12
 5672 0194 3D09      		sbc r19,r13
 5673 0196 4E09      		sbc r20,r14
 5674 0198 5F09      		sbc r21,r15
 5675 019a C501      		movw r24,r10
 5676 019c A0E0      		ldi r26,lo8(0)
 5677 019e B0E0      		ldi r27,hi8(0)
 5678               	.LVL584:
 5679 01a0 2817      		cp r18,r24
 5680 01a2 3907      		cpc r19,r25
 5681 01a4 4A07      		cpc r20,r26
 5682 01a6 5B07      		cpc r21,r27
 5683 01a8 00F4      		brsh .L299
 5684               	.LVL585:
 5685               	.LSM516:
 5686 01aa 69E0      		ldi r22,9
 5687 01ac 220F      	1:	lsl r18
 5688 01ae 331F      		rol r19
 5689 01b0 441F      		rol r20
 5690 01b2 551F      		rol r21
 5691 01b4 6A95      		dec r22
 5692 01b6 01F4      		brne 1b
 5693 01b8 C201      		movw r24,r4
 5694               	.LVL586:
 5695 01ba 820F      		add r24,r18
 5696 01bc 931F      		adc r25,r19
 5697 01be BE96      		adiw r30,46
 5698 01c0 BF01      		movw r22,r30
 5699 01c2 40E0      		ldi r20,lo8(512)
 5700 01c4 52E0      		ldi r21,hi8(512)
 5701 01c6 0E94 0000 		call mem_cpy
 5702               	.LVL587:
 5703               	.L299:
 5704               	.LSM517:
 5705 01ca 8501      		movw r16,r10
 5706               	.LVL588:
 5707 01cc 102F      		mov r17,r16
 5708 01ce 0027      		clr r16
 5709 01d0 110F      		lsl r17
 5710 01d2 00C0      		rjmp .L300
 5711               	.LVL589:
 5712               	.L296:
 5713               	.LSM518:
 5714 01d4 CE8A      		std Y+22,r12
 5715 01d6 DF8A      		std Y+23,r13
 5716 01d8 E88E      		std Y+24,r14
 5717 01da F98E      		std Y+25,r15
 5718               	.LVL590:
 5719               	.L289:
 5720               	.LSM519:
 5721 01dc EE80      		ldd r14,Y+6
 5722 01de FF80      		ldd r15,Y+7
 5723 01e0 0885      		ldd r16,Y+8
 5724 01e2 1985      		ldd r17,Y+9
 5725               	.LSM520:
 5726 01e4 4E89      		ldd r20,Y+22
 5727 01e6 5F89      		ldd r21,Y+23
 5728 01e8 688D      		ldd r22,Y+24
 5729 01ea 798D      		ldd r23,Y+25
 5730 01ec 8881      		ld r24,Y
 5731 01ee 9981      		ldd r25,Y+1
 5732 01f0 0E94 0000 		call move_window
 5733               	.LVL591:
 5734 01f4 8823      		tst r24
 5735 01f6 01F0      		breq .L301
 5736               	.LVL592:
 5737               	.L306:
 5738               	.LSM521:
 5739 01f8 8C81      		ldd r24,Y+4
 5740 01fa 8068      		ori r24,lo8(-128)
 5741 01fc 8C83      		std Y+4,r24
 5742 01fe 8824      		clr r8
 5743 0200 8394      		inc r8
 5744 0202 00C0      		rjmp .L284
 5745               	.LVL593:
 5746               	.L301:
 5747               	.LSM522:
 5748 0204 C701      		movw r24,r14
 5749 0206 9170      		andi r25,hi8(511)
 5750 0208 20E0      		ldi r18,lo8(512)
 5751 020a 32E0      		ldi r19,hi8(512)
 5752 020c 281B      		sub r18,r24
 5753 020e 390B      		sbc r19,r25
 5754 0210 8301      		movw r16,r6
 5755               	.LVL594:
 5756 0212 2615      		cp r18,r6
 5757 0214 3705      		cpc r19,r7
 5758 0216 00F4      		brsh .L302
 5759               	.LVL595:
 5760 0218 8901      		movw r16,r18
 5761               	.L302:
 5762               	.LSM523:
 5763 021a 8E81      		ldd r24,Y+6
 5764 021c 9F81      		ldd r25,Y+7
 5765 021e 9170      		andi r25,hi8(511)
 5766 0220 8E96      		adiw r24,46
 5767 0222 6881      		ld r22,Y
 5768 0224 7981      		ldd r23,Y+1
 5769 0226 680F      		add r22,r24
 5770 0228 791F      		adc r23,r25
 5771 022a C201      		movw r24,r4
 5772 022c A801      		movw r20,r16
 5773 022e 0E94 0000 		call mem_cpy
 5774               	.LVL596:
 5775               	.L300:
 5776               	.LSM524:
 5777 0232 400E      		add r4,r16
 5778 0234 511E      		adc r5,r17
 5779 0236 C801      		movw r24,r16
 5780 0238 A0E0      		ldi r26,lo8(0)
 5781 023a B0E0      		ldi r27,hi8(0)
 5782               	.LVL597:
 5783 023c 2E81      		ldd r18,Y+6
 5784 023e 3F81      		ldd r19,Y+7
 5785 0240 4885      		ldd r20,Y+8
 5786 0242 5985      		ldd r21,Y+9
 5787 0244 280F      		add r18,r24
 5788 0246 391F      		adc r19,r25
 5789 0248 4A1F      		adc r20,r26
 5790 024a 5B1F      		adc r21,r27
 5791 024c 2E83      		std Y+6,r18
 5792 024e 3F83      		std Y+7,r19
 5793 0250 4887      		std Y+8,r20
 5794 0252 5987      		std Y+9,r21
 5795 0254 F101      		movw r30,r2
 5796 0256 8081      		ld r24,Z
 5797 0258 9181      		ldd r25,Z+1
 5798 025a 800F      		add r24,r16
 5799 025c 911F      		adc r25,r17
 5800 025e 9183      		std Z+1,r25
 5801 0260 8083      		st Z,r24
 5802 0262 601A      		sub r6,r16
 5803 0264 710A      		sbc r7,r17
 5804               	.LVL598:
 5805               	.L288:
 5806               	.LSM525:
 5807 0266 6114      		cp r6,__zero_reg__
 5808 0268 7104      		cpc r7,__zero_reg__
 5809 026a 01F0      		breq .+2
 5810 026c 00C0      		rjmp .L303
 5811               	.LVL599:
 5812               	.L284:
 5813               	.LSM526:
 5814 026e 882D      		mov r24,r8
 5815               	/* epilogue start */
 5816 0270 DF91      		pop r29
 5817 0272 CF91      		pop r28
 5818               	.LVL600:
 5819 0274 1F91      		pop r17
 5820               	.LVL601:
 5821 0276 0F91      		pop r16
 5822               	.LVL602:
 5823 0278 FF90      		pop r15
 5824 027a EF90      		pop r14
 5825 027c DF90      		pop r13
 5826 027e CF90      		pop r12
 5827               	.LVL603:
 5828 0280 BF90      		pop r11
 5829 0282 AF90      		pop r10
 5830               	.LVL604:
 5831 0284 9F90      		pop r9
 5832               	.LVL605:
 5833 0286 8F90      		pop r8
 5834               	.LVL606:
 5835 0288 7F90      		pop r7
 5836 028a 6F90      		pop r6
 5837               	.LVL607:
 5838 028c 5F90      		pop r5
 5839 028e 4F90      		pop r4
 5840               	.LVL608:
 5841 0290 3F90      		pop r3
 5842 0292 2F90      		pop r2
 5843               	.LVL609:
 5844 0294 0895      		ret
 5845               	.LFE158:
 5847               		.section	.text.f_write,"ax",@progbits
 5848               	.global	f_write
 5850               	f_write:
 5851               	.LFB159:
 5852               	.LSM527:
 5853               	.LVL610:
 5854 0000 2F92      		push r2
 5855 0002 3F92      		push r3
 5856 0004 4F92      		push r4
 5857 0006 5F92      		push r5
 5858 0008 6F92      		push r6
 5859 000a 7F92      		push r7
 5860 000c 8F92      		push r8
 5861 000e 9F92      		push r9
 5862 0010 AF92      		push r10
 5863 0012 BF92      		push r11
 5864 0014 CF92      		push r12
 5865 0016 DF92      		push r13
 5866 0018 EF92      		push r14
 5867 001a FF92      		push r15
 5868 001c 0F93      		push r16
 5869 001e 1F93      		push r17
 5870 0020 CF93      		push r28
 5871 0022 DF93      		push r29
 5872               	/* prologue: function */
 5873               	/* frame size = 0 */
 5874 0024 EC01      		movw r28,r24
 5875 0026 162F      		mov r17,r22
 5876 0028 072F      		mov r16,r23
 5877               	.LVL611:
 5878 002a 3A01      		movw r6,r20
 5879 002c 1901      		movw r2,r18
 5880               	.LSM528:
 5881 002e F901      		movw r30,r18
 5882 0030 1182      		std Z+1,__zero_reg__
 5883 0032 1082      		st Z,__zero_reg__
 5884               	.LSM529:
 5885 0034 6A81      		ldd r22,Y+2
 5886 0036 7B81      		ldd r23,Y+3
 5887               	.LVL612:
 5888 0038 8881      		ld r24,Y
 5889 003a 9981      		ldd r25,Y+1
 5890               	.LVL613:
 5891 003c 0E94 0000 		call validate
 5892               	.LVL614:
 5893 0040 882E      		mov r8,r24
 5894               	.LVL615:
 5895               	.LSM530:
 5896 0042 8823      		tst r24
 5897 0044 01F0      		breq .+2
 5898 0046 00C0      		rjmp .L309
 5899               	.LVL616:
 5900               	.LSM531:
 5901 0048 8C81      		ldd r24,Y+4
 5902               	.LVL617:
 5903 004a 87FD      		sbrc r24,7
 5904 004c 00C0      		rjmp .L336
 5905               	.L310:
 5906               	.LSM532:
 5907 004e 81FD      		sbrc r24,1
 5908 0050 00C0      		rjmp .L311
 5909 0052 77E0      		ldi r23,lo8(7)
 5910 0054 872E      		mov r8,r23
 5911 0056 00C0      		rjmp .L309
 5912               	.L311:
 5913               	.LSM533:
 5914 0058 2A85      		ldd r18,Y+10
 5915 005a 3B85      		ldd r19,Y+11
 5916 005c 4C85      		ldd r20,Y+12
 5917 005e 5D85      		ldd r21,Y+13
 5918 0060 C301      		movw r24,r6
 5919 0062 A0E0      		ldi r26,lo8(0)
 5920 0064 B0E0      		ldi r27,hi8(0)
 5921               	.LVL618:
 5922 0066 820F      		add r24,r18
 5923 0068 931F      		adc r25,r19
 5924 006a A41F      		adc r26,r20
 5925 006c B51F      		adc r27,r21
 5926               	.LVL619:
 5927 006e 8217      		cp r24,r18
 5928 0070 9307      		cpc r25,r19
 5929 0072 A407      		cpc r26,r20
 5930 0074 B507      		cpc r27,r21
 5931 0076 00F4      		brsh .L312
 5932 0078 6624      		clr r6
 5933 007a 7724      		clr r7
 5934               	.LVL620:
 5935               	.L312:
 5936               	.LSM534:
 5937 007c 812F      		mov r24,r17
 5938               	.LVL621:
 5939 007e 902F      		mov r25,r16
 5940               	.LVL622:
 5941 0080 9C01      		movw r18,r24
 5942               	.LVL623:
 5943 0082 2901      		movw r4,r18
 5944               	.LVL624:
 5945 0084 00C0      		rjmp .L313
 5946               	.LVL625:
 5947               	.L333:
 5948               	.LSM535:
 5949 0086 2E81      		ldd r18,Y+6
 5950 0088 3F81      		ldd r19,Y+7
 5951 008a 4885      		ldd r20,Y+8
 5952 008c 5985      		ldd r21,Y+9
 5953 008e DA01      		movw r26,r20
 5954 0090 C901      		movw r24,r18
 5955 0092 9170      		andi r25,hi8(511)
 5956 0094 A070      		andi r26,hlo8(511)
 5957 0096 B070      		andi r27,hhi8(511)
 5958 0098 0097      		sbiw r24,0
 5959 009a A105      		cpc r26,__zero_reg__
 5960 009c B105      		cpc r27,__zero_reg__
 5961 009e 01F0      		breq .+2
 5962 00a0 00C0      		rjmp .L314
 5963               	.LSM536:
 5964 00a2 E881      		ld r30,Y
 5965 00a4 F981      		ldd r31,Y+1
 5966 00a6 DA01      		movw r26,r20
 5967 00a8 C901      		movw r24,r18
 5968 00aa 69E0      		ldi r22,9
 5969 00ac B695      	1:	lsr r27
 5970 00ae A795      		ror r26
 5971 00b0 9795      		ror r25
 5972 00b2 8795      		ror r24
 5973 00b4 6A95      		dec r22
 5974 00b6 01F4      		brne 1b
 5975 00b8 9280      		ldd r9,Z+2
 5976 00ba 9A94      		dec r9
 5977 00bc 9822      		and r9,r24
 5978               	.LSM537:
 5979 00be 01F0      		breq .+2
 5980 00c0 00C0      		rjmp .L315
 5981               	.LSM538:
 5982 00c2 2115      		cp r18,__zero_reg__
 5983 00c4 3105      		cpc r19,__zero_reg__
 5984 00c6 4105      		cpc r20,__zero_reg__
 5985 00c8 5105      		cpc r21,__zero_reg__
 5986 00ca 01F4      		brne .L316
 5987               	.LSM539:
 5988 00cc 6E85      		ldd r22,Y+14
 5989 00ce 7F85      		ldd r23,Y+15
 5990 00d0 8889      		ldd r24,Y+16
 5991 00d2 9989      		ldd r25,Y+17
 5992               	.LVL626:
 5993               	.LSM540:
 5994 00d4 6115      		cp r22,__zero_reg__
 5995 00d6 7105      		cpc r23,__zero_reg__
 5996 00d8 8105      		cpc r24,__zero_reg__
 5997 00da 9105      		cpc r25,__zero_reg__
 5998 00dc 01F4      		brne .L317
 5999               	.LSM541:
 6000 00de CF01      		movw r24,r30
 6001 00e0 40E0      		ldi r20,lo8(0)
 6002 00e2 50E0      		ldi r21,hi8(0)
 6003 00e4 60E0      		ldi r22,hlo8(0)
 6004 00e6 70E0      		ldi r23,hhi8(0)
 6005 00e8 0E94 0000 		call create_chain
 6006               	.LVL627:
 6007 00ec 6E87      		std Y+14,r22
 6008 00ee 7F87      		std Y+15,r23
 6009 00f0 888B      		std Y+16,r24
 6010 00f2 998B      		std Y+17,r25
 6011               	.LVL628:
 6012 00f4 00C0      		rjmp .L318
 6013               	.LVL629:
 6014               	.L316:
 6015               	.LSM542:
 6016 00f6 4A89      		ldd r20,Y+18
 6017 00f8 5B89      		ldd r21,Y+19
 6018 00fa 6C89      		ldd r22,Y+20
 6019 00fc 7D89      		ldd r23,Y+21
 6020 00fe CF01      		movw r24,r30
 6021 0100 0E94 0000 		call create_chain
 6022               	.LVL630:
 6023               	.L318:
 6024               	.LSM543:
 6025 0104 6115      		cp r22,__zero_reg__
 6026 0106 7105      		cpc r23,__zero_reg__
 6027 0108 8105      		cpc r24,__zero_reg__
 6028 010a 9105      		cpc r25,__zero_reg__
 6029 010c 01F4      		brne .+2
 6030 010e 00C0      		rjmp .L319
 6031               	.LVL631:
 6032               	.L317:
 6033               	.LSM544:
 6034 0110 6130      		cpi r22,lo8(1)
 6035 0112 7105      		cpc r23,__zero_reg__
 6036 0114 8105      		cpc r24,__zero_reg__
 6037 0116 9105      		cpc r25,__zero_reg__
 6038 0118 01F4      		brne .L320
 6039               	.LVL632:
 6040               	.L338:
 6041 011a 8C81      		ldd r24,Y+4
 6042 011c 8068      		ori r24,lo8(-128)
 6043 011e 8C83      		std Y+4,r24
 6044               	.L336:
 6045 0120 32E0      		ldi r19,lo8(2)
 6046 0122 832E      		mov r8,r19
 6047 0124 00C0      		rjmp .L309
 6048               	.LVL633:
 6049               	.L320:
 6050               	.LSM545:
 6051 0126 6F3F      		cpi r22,lo8(-1)
 6052 0128 FFEF      		ldi r31,hi8(-1)
 6053 012a 7F07      		cpc r23,r31
 6054 012c FFEF      		ldi r31,hlo8(-1)
 6055 012e 8F07      		cpc r24,r31
 6056 0130 FFEF      		ldi r31,hhi8(-1)
 6057 0132 9F07      		cpc r25,r31
 6058 0134 01F4      		brne .+2
 6059 0136 00C0      		rjmp .L337
 6060               	.L321:
 6061               	.LSM546:
 6062 0138 6A8B      		std Y+18,r22
 6063 013a 7B8B      		std Y+19,r23
 6064 013c 8C8B      		std Y+20,r24
 6065 013e 9D8B      		std Y+21,r25
 6066               	.L315:
 6067               	.LSM547:
 6068 0140 E881      		ld r30,Y
 6069 0142 F981      		ldd r31,Y+1
 6070 0144 22A5      		ldd r18,Z+42
 6071 0146 33A5      		ldd r19,Z+43
 6072 0148 44A5      		ldd r20,Z+44
 6073 014a 55A5      		ldd r21,Z+45
 6074 014c 8E89      		ldd r24,Y+22
 6075 014e 9F89      		ldd r25,Y+23
 6076 0150 A88D      		ldd r26,Y+24
 6077 0152 B98D      		ldd r27,Y+25
 6078 0154 2817      		cp r18,r24
 6079 0156 3907      		cpc r19,r25
 6080 0158 4A07      		cpc r20,r26
 6081 015a 5B07      		cpc r21,r27
 6082 015c 01F4      		brne .L322
 6083 015e CF01      		movw r24,r30
 6084 0160 40E0      		ldi r20,lo8(0)
 6085 0162 50E0      		ldi r21,hi8(0)
 6086 0164 60E0      		ldi r22,hlo8(0)
 6087 0166 70E0      		ldi r23,hhi8(0)
 6088 0168 0E94 0000 		call move_window
 6089               	.LVL634:
 6090 016c 8823      		tst r24
 6091 016e 01F0      		breq .+2
 6092 0170 00C0      		rjmp .L337
 6093               	.LVL635:
 6094               	.L322:
 6095               	.LSM548:
 6096 0172 0881      		ld r16,Y
 6097 0174 1981      		ldd r17,Y+1
 6098               	.LVL636:
 6099 0176 4A89      		ldd r20,Y+18
 6100 0178 5B89      		ldd r21,Y+19
 6101 017a 6C89      		ldd r22,Y+20
 6102 017c 7D89      		ldd r23,Y+21
 6103 017e C801      		movw r24,r16
 6104 0180 0E94 0000 		call clust2sect
 6105               	.LVL637:
 6106               	.LSM549:
 6107 0184 6115      		cp r22,__zero_reg__
 6108 0186 7105      		cpc r23,__zero_reg__
 6109 0188 8105      		cpc r24,__zero_reg__
 6110 018a 9105      		cpc r25,__zero_reg__
 6111 018c 01F0      		breq .L338
 6112               	.LVL638:
 6113               	.L323:
 6114               	.LSM550:
 6115 018e 6B01      		movw r12,r22
 6116 0190 7C01      		movw r14,r24
 6117 0192 C90C      		add r12,r9
 6118 0194 D11C      		adc r13,__zero_reg__
 6119 0196 E11C      		adc r14,__zero_reg__
 6120 0198 F11C      		adc r15,__zero_reg__
 6121               	.LVL639:
 6122               	.LSM551:
 6123 019a 5301      		movw r10,r6
 6124 019c AB2C      		mov r10,r11
 6125 019e BB24      		clr r11
 6126 01a0 A694      		lsr r10
 6127               	.LSM552:
 6128 01a2 A114      		cp r10,__zero_reg__
 6129 01a4 B104      		cpc r11,__zero_reg__
 6130 01a6 01F4      		brne .+2
 6131 01a8 00C0      		rjmp .L324
 6132               	.LSM553:
 6133 01aa F801      		movw r30,r16
 6134 01ac 2281      		ldd r18,Z+2
 6135 01ae 492D      		mov r20,r9
 6136 01b0 50E0      		ldi r21,lo8(0)
 6137               	.LVL640:
 6138 01b2 C501      		movw r24,r10
 6139 01b4 840F      		add r24,r20
 6140 01b6 951F      		adc r25,r21
 6141 01b8 30E0      		ldi r19,lo8(0)
 6142 01ba 2817      		cp r18,r24
 6143 01bc 3907      		cpc r19,r25
 6144 01be 00F4      		brsh .L325
 6145               	.LVL641:
 6146               	.LSM554:
 6147 01c0 5901      		movw r10,r18
 6148 01c2 A41A      		sub r10,r20
 6149 01c4 B50A      		sbc r11,r21
 6150               	.L325:
 6151               	.LSM555:
 6152 01c6 F801      		movw r30,r16
 6153 01c8 8181      		ldd r24,Z+1
 6154 01ca B201      		movw r22,r4
 6155 01cc A701      		movw r20,r14
 6156 01ce 9601      		movw r18,r12
 6157 01d0 0A2D      		mov r16,r10
 6158 01d2 0E94 0000 		call disk_write
 6159               	.LVL642:
 6160 01d6 8823      		tst r24
 6161 01d8 01F0      		breq .+2
 6162 01da 00C0      		rjmp .L337
 6163               	.L326:
 6164               	.LSM556:
 6165 01dc E881      		ld r30,Y
 6166 01de F981      		ldd r31,Y+1
 6167 01e0 22A5      		ldd r18,Z+42
 6168 01e2 33A5      		ldd r19,Z+43
 6169 01e4 44A5      		ldd r20,Z+44
 6170 01e6 55A5      		ldd r21,Z+45
 6171 01e8 2C19      		sub r18,r12
 6172 01ea 3D09      		sbc r19,r13
 6173 01ec 4E09      		sbc r20,r14
 6174 01ee 5F09      		sbc r21,r15
 6175 01f0 C501      		movw r24,r10
 6176 01f2 A0E0      		ldi r26,lo8(0)
 6177 01f4 B0E0      		ldi r27,hi8(0)
 6178               	.LVL643:
 6179 01f6 2817      		cp r18,r24
 6180 01f8 3907      		cpc r19,r25
 6181 01fa 4A07      		cpc r20,r26
 6182 01fc 5B07      		cpc r21,r27
 6183 01fe 00F4      		brsh .L327
 6184               	.LVL644:
 6185               	.LSM557:
 6186 0200 99E0      		ldi r25,9
 6187 0202 220F      	1:	lsl r18
 6188 0204 331F      		rol r19
 6189 0206 441F      		rol r20
 6190 0208 551F      		rol r21
 6191 020a 9A95      		dec r25
 6192 020c 01F4      		brne 1b
 6193 020e B201      		movw r22,r4
 6194 0210 620F      		add r22,r18
 6195 0212 731F      		adc r23,r19
 6196 0214 CF01      		movw r24,r30
 6197               	.LVL645:
 6198 0216 8E96      		adiw r24,46
 6199 0218 40E0      		ldi r20,lo8(512)
 6200 021a 52E0      		ldi r21,hi8(512)
 6201 021c 0E94 0000 		call mem_cpy
 6202               	.LVL646:
 6203               	.LSM558:
 6204 0220 E881      		ld r30,Y
 6205 0222 F981      		ldd r31,Y+1
 6206 0224 1482      		std Z+4,__zero_reg__
 6207               	.LVL647:
 6208               	.L327:
 6209               	.LSM559:
 6210 0226 8501      		movw r16,r10
 6211               	.LVL648:
 6212 0228 102F      		mov r17,r16
 6213 022a 0027      		clr r16
 6214 022c 110F      		lsl r17
 6215 022e 00C0      		rjmp .L328
 6216               	.LVL649:
 6217               	.L324:
 6218               	.LSM560:
 6219 0230 2E81      		ldd r18,Y+6
 6220 0232 3F81      		ldd r19,Y+7
 6221 0234 4885      		ldd r20,Y+8
 6222 0236 5985      		ldd r21,Y+9
 6223 0238 8A85      		ldd r24,Y+10
 6224 023a 9B85      		ldd r25,Y+11
 6225 023c AC85      		ldd r26,Y+12
 6226 023e BD85      		ldd r27,Y+13
 6227 0240 2817      		cp r18,r24
 6228 0242 3907      		cpc r19,r25
 6229 0244 4A07      		cpc r20,r26
 6230 0246 5B07      		cpc r21,r27
 6231 0248 00F0      		brlo .L329
 6232               	.LSM561:
 6233 024a C801      		movw r24,r16
 6234 024c 40E0      		ldi r20,lo8(0)
 6235 024e 50E0      		ldi r21,hi8(0)
 6236 0250 60E0      		ldi r22,hlo8(0)
 6237 0252 70E0      		ldi r23,hhi8(0)
 6238 0254 0E94 0000 		call move_window
 6239 0258 8823      		tst r24
 6240 025a 01F4      		brne .L337
 6241               	.L330:
 6242               	.LSM562:
 6243 025c E881      		ld r30,Y
 6244 025e F981      		ldd r31,Y+1
 6245 0260 C2A6      		std Z+42,r12
 6246 0262 D3A6      		std Z+43,r13
 6247 0264 E4A6      		std Z+44,r14
 6248 0266 F5A6      		std Z+45,r15
 6249               	.L329:
 6250               	.LSM563:
 6251 0268 CE8A      		std Y+22,r12
 6252 026a DF8A      		std Y+23,r13
 6253 026c E88E      		std Y+24,r14
 6254 026e F98E      		std Y+25,r15
 6255               	.LVL650:
 6256               	.L314:
 6257               	.LSM564:
 6258 0270 EE80      		ldd r14,Y+6
 6259 0272 FF80      		ldd r15,Y+7
 6260 0274 0885      		ldd r16,Y+8
 6261 0276 1985      		ldd r17,Y+9
 6262               	.LSM565:
 6263 0278 4E89      		ldd r20,Y+22
 6264 027a 5F89      		ldd r21,Y+23
 6265 027c 688D      		ldd r22,Y+24
 6266 027e 798D      		ldd r23,Y+25
 6267 0280 8881      		ld r24,Y
 6268 0282 9981      		ldd r25,Y+1
 6269 0284 0E94 0000 		call move_window
 6270               	.LVL651:
 6271 0288 8823      		tst r24
 6272 028a 01F0      		breq .L331
 6273               	.LVL652:
 6274               	.L337:
 6275               	.LSM566:
 6276 028c 8C81      		ldd r24,Y+4
 6277 028e 8068      		ori r24,lo8(-128)
 6278 0290 8C83      		std Y+4,r24
 6279 0292 8824      		clr r8
 6280 0294 8394      		inc r8
 6281 0296 00C0      		rjmp .L309
 6282               	.LVL653:
 6283               	.L331:
 6284               	.LSM567:
 6285 0298 C701      		movw r24,r14
 6286 029a 9170      		andi r25,hi8(511)
 6287 029c 20E0      		ldi r18,lo8(512)
 6288 029e 32E0      		ldi r19,hi8(512)
 6289 02a0 281B      		sub r18,r24
 6290 02a2 390B      		sbc r19,r25
 6291 02a4 8301      		movw r16,r6
 6292               	.LVL654:
 6293 02a6 2615      		cp r18,r6
 6294 02a8 3705      		cpc r19,r7
 6295 02aa 00F4      		brsh .L332
 6296               	.LVL655:
 6297 02ac 8901      		movw r16,r18
 6298               	.L332:
 6299               	.LSM568:
 6300 02ae 2E81      		ldd r18,Y+6
 6301 02b0 3F81      		ldd r19,Y+7
 6302               	.LVL656:
 6303 02b2 3170      		andi r19,hi8(511)
 6304 02b4 225D      		subi r18,lo8(-(46))
 6305 02b6 3F4F      		sbci r19,hi8(-(46))
 6306 02b8 8881      		ld r24,Y
 6307 02ba 9981      		ldd r25,Y+1
 6308 02bc 820F      		add r24,r18
 6309 02be 931F      		adc r25,r19
 6310 02c0 B201      		movw r22,r4
 6311 02c2 A801      		movw r20,r16
 6312 02c4 0E94 0000 		call mem_cpy
 6313               	.LSM569:
 6314 02c8 E881      		ld r30,Y
 6315 02ca F981      		ldd r31,Y+1
 6316 02cc 31E0      		ldi r19,lo8(1)
 6317 02ce 3483      		std Z+4,r19
 6318               	.LVL657:
 6319               	.L328:
 6320               	.LSM570:
 6321 02d0 400E      		add r4,r16
 6322 02d2 511E      		adc r5,r17
 6323 02d4 C801      		movw r24,r16
 6324 02d6 A0E0      		ldi r26,lo8(0)
 6325 02d8 B0E0      		ldi r27,hi8(0)
 6326               	.LVL658:
 6327 02da 2E81      		ldd r18,Y+6
 6328 02dc 3F81      		ldd r19,Y+7
 6329 02de 4885      		ldd r20,Y+8
 6330 02e0 5985      		ldd r21,Y+9
 6331 02e2 280F      		add r18,r24
 6332 02e4 391F      		adc r19,r25
 6333 02e6 4A1F      		adc r20,r26
 6334 02e8 5B1F      		adc r21,r27
 6335 02ea 2E83      		std Y+6,r18
 6336 02ec 3F83      		std Y+7,r19
 6337 02ee 4887      		std Y+8,r20
 6338 02f0 5987      		std Y+9,r21
 6339 02f2 F101      		movw r30,r2
 6340 02f4 8081      		ld r24,Z
 6341 02f6 9181      		ldd r25,Z+1
 6342 02f8 800F      		add r24,r16
 6343 02fa 911F      		adc r25,r17
 6344 02fc 9183      		std Z+1,r25
 6345 02fe 8083      		st Z,r24
 6346 0300 601A      		sub r6,r16
 6347 0302 710A      		sbc r7,r17
 6348               	.LVL659:
 6349               	.L313:
 6350               	.LSM571:
 6351 0304 6114      		cp r6,__zero_reg__
 6352 0306 7104      		cpc r7,__zero_reg__
 6353 0308 01F0      		breq .+2
 6354 030a 00C0      		rjmp .L333
 6355               	.LVL660:
 6356               	.L319:
 6357               	.LSM572:
 6358 030c 2E81      		ldd r18,Y+6
 6359 030e 3F81      		ldd r19,Y+7
 6360 0310 4885      		ldd r20,Y+8
 6361 0312 5985      		ldd r21,Y+9
 6362 0314 8A85      		ldd r24,Y+10
 6363 0316 9B85      		ldd r25,Y+11
 6364 0318 AC85      		ldd r26,Y+12
 6365 031a BD85      		ldd r27,Y+13
 6366 031c 8217      		cp r24,r18
 6367 031e 9307      		cpc r25,r19
 6368 0320 A407      		cpc r26,r20
 6369 0322 B507      		cpc r27,r21
 6370 0324 00F4      		brsh .L334
 6371 0326 2A87      		std Y+10,r18
 6372 0328 3B87      		std Y+11,r19
 6373 032a 4C87      		std Y+12,r20
 6374 032c 5D87      		std Y+13,r21
 6375               	.L334:
 6376               	.LSM573:
 6377 032e 8C81      		ldd r24,Y+4
 6378 0330 8062      		ori r24,lo8(32)
 6379 0332 8C83      		std Y+4,r24
 6380               	.LVL661:
 6381               	.L309:
 6382               	.LSM574:
 6383 0334 882D      		mov r24,r8
 6384               	/* epilogue start */
 6385 0336 DF91      		pop r29
 6386 0338 CF91      		pop r28
 6387               	.LVL662:
 6388 033a 1F91      		pop r17
 6389               	.LVL663:
 6390 033c 0F91      		pop r16
 6391               	.LVL664:
 6392 033e FF90      		pop r15
 6393 0340 EF90      		pop r14
 6394 0342 DF90      		pop r13
 6395 0344 CF90      		pop r12
 6396               	.LVL665:
 6397 0346 BF90      		pop r11
 6398 0348 AF90      		pop r10
 6399               	.LVL666:
 6400 034a 9F90      		pop r9
 6401               	.LVL667:
 6402 034c 8F90      		pop r8
 6403               	.LVL668:
 6404 034e 7F90      		pop r7
 6405 0350 6F90      		pop r6
 6406               	.LVL669:
 6407 0352 5F90      		pop r5
 6408 0354 4F90      		pop r4
 6409               	.LVL670:
 6410 0356 3F90      		pop r3
 6411 0358 2F90      		pop r2
 6412               	.LVL671:
 6413 035a 0895      		ret
 6414               	.LFE159:
 6416               		.section	.text.sync,"ax",@progbits
 6418               	sync:
 6419               	.LFB138:
 6420               	.LSM575:
 6421               	.LVL672:
 6422 0000 0F93      		push r16
 6423 0002 1F93      		push r17
 6424 0004 CF93      		push r28
 6425 0006 DF93      		push r29
 6426               	/* prologue: function */
 6427               	/* frame size = 0 */
 6428 0008 EC01      		movw r28,r24
 6429               	.LSM576:
 6430 000a 40E0      		ldi r20,lo8(0)
 6431 000c 50E0      		ldi r21,hi8(0)
 6432 000e 60E0      		ldi r22,hlo8(0)
 6433 0010 70E0      		ldi r23,hhi8(0)
 6434 0012 0E94 0000 		call move_window
 6435               	.LVL673:
 6436               	.LSM577:
 6437 0016 8823      		tst r24
 6438               	.LVL674:
 6439 0018 01F0      		breq .+2
 6440 001a 00C0      		rjmp .L340
 6441               	.LSM578:
 6442 001c 8881      		ld r24,Y
 6443               	.LVL675:
 6444 001e 8330      		cpi r24,lo8(3)
 6445 0020 01F0      		breq .+2
 6446 0022 00C0      		rjmp .L341
 6447 0024 8D81      		ldd r24,Y+5
 6448 0026 8823      		tst r24
 6449 0028 01F4      		brne .+2
 6450 002a 00C0      		rjmp .L341
 6451               	.LSM579:
 6452 002c 1AA6      		std Y+42,__zero_reg__
 6453 002e 1BA6      		std Y+43,__zero_reg__
 6454 0030 1CA6      		std Y+44,__zero_reg__
 6455 0032 1DA6      		std Y+45,__zero_reg__
 6456               	.LSM580:
 6457 0034 8E01      		movw r16,r28
 6458 0036 025D      		subi r16,lo8(-(46))
 6459 0038 1F4F      		sbci r17,hi8(-(46))
 6460 003a C801      		movw r24,r16
 6461 003c 60E0      		ldi r22,lo8(0)
 6462 003e 70E0      		ldi r23,hi8(0)
 6463 0040 40E0      		ldi r20,lo8(512)
 6464 0042 52E0      		ldi r21,hi8(512)
 6465 0044 0E94 0000 		call mem_set
 6466               	.LSM581:
 6467 0048 C45D      		subi r28,lo8(-(556))
 6468 004a DD4F      		sbci r29,hi8(-(556))
 6469 004c 85E5      		ldi r24,lo8(-21931)
 6470 004e 9AEA      		ldi r25,hi8(-21931)
 6471 0050 9983      		std Y+1,r25
 6472 0052 8883      		st Y,r24
 6473 0054 CC52      		subi r28,lo8(-(-556))
 6474 0056 D240      		sbci r29,hi8(-(-556))
 6475               	.LSM582:
 6476 0058 82E5      		ldi r24,lo8(1096897106)
 6477 005a 92E5      		ldi r25,hi8(1096897106)
 6478 005c A1E6      		ldi r26,hlo8(1096897106)
 6479 005e B1E4      		ldi r27,hhi8(1096897106)
 6480 0060 8EA7      		std Y+46,r24
 6481 0062 9FA7      		std Y+47,r25
 6482 0064 A8AB      		std Y+48,r26
 6483 0066 B9AB      		std Y+49,r27
 6484               	.LSM583:
 6485 0068 CE5E      		subi r28,lo8(-(530))
 6486 006a DD4F      		sbci r29,hi8(-(530))
 6487 006c 82E7      		ldi r24,lo8(1631679090)
 6488 006e 92E7      		ldi r25,hi8(1631679090)
 6489 0070 A1E4      		ldi r26,hlo8(1631679090)
 6490 0072 B1E6      		ldi r27,hhi8(1631679090)
 6491 0074 8883      		st Y,r24
 6492 0076 9983      		std Y+1,r25
 6493 0078 AA83      		std Y+2,r26
 6494 007a BB83      		std Y+3,r27
 6495 007c C251      		subi r28,lo8(-(-530))
 6496 007e D240      		sbci r29,hi8(-(-530))
 6497               	.LSM584:
 6498 0080 8E85      		ldd r24,Y+14
 6499 0082 9F85      		ldd r25,Y+15
 6500 0084 A889      		ldd r26,Y+16
 6501 0086 B989      		ldd r27,Y+17
 6502 0088 CA5E      		subi r28,lo8(-(534))
 6503 008a DD4F      		sbci r29,hi8(-(534))
 6504 008c 8883      		st Y,r24
 6505 008e 9983      		std Y+1,r25
 6506 0090 AA83      		std Y+2,r26
 6507 0092 BB83      		std Y+3,r27
 6508 0094 C651      		subi r28,lo8(-(-534))
 6509 0096 D240      		sbci r29,hi8(-(-534))
 6510               	.LSM585:
 6511 0098 8A85      		ldd r24,Y+10
 6512 009a 9B85      		ldd r25,Y+11
 6513 009c AC85      		ldd r26,Y+12
 6514 009e BD85      		ldd r27,Y+13
 6515 00a0 C65E      		subi r28,lo8(-(538))
 6516 00a2 DD4F      		sbci r29,hi8(-(538))
 6517 00a4 8883      		st Y,r24
 6518 00a6 9983      		std Y+1,r25
 6519 00a8 AA83      		std Y+2,r26
 6520 00aa BB83      		std Y+3,r27
 6521 00ac CA51      		subi r28,lo8(-(-538))
 6522 00ae D240      		sbci r29,hi8(-(-538))
 6523               	.LSM586:
 6524 00b0 2A89      		ldd r18,Y+18
 6525 00b2 3B89      		ldd r19,Y+19
 6526 00b4 4C89      		ldd r20,Y+20
 6527 00b6 5D89      		ldd r21,Y+21
 6528 00b8 8981      		ldd r24,Y+1
 6529 00ba B801      		movw r22,r16
 6530 00bc 01E0      		ldi r16,lo8(1)
 6531 00be 0E94 0000 		call disk_write
 6532               	.LSM587:
 6533 00c2 1D82      		std Y+5,__zero_reg__
 6534               	.L341:
 6535               	.LSM588:
 6536 00c4 8981      		ldd r24,Y+1
 6537 00c6 60E0      		ldi r22,lo8(0)
 6538 00c8 40E0      		ldi r20,lo8(0)
 6539 00ca 50E0      		ldi r21,hi8(0)
 6540 00cc 0E94 0000 		call disk_ioctl
 6541 00d0 8111      		cpse r24,__zero_reg__
 6542 00d2 81E0      		ldi r24,lo8(1)
 6543               	.LVL676:
 6544               	.L340:
 6545               	.LVL677:
 6546               	/* epilogue start */
 6547               	.LSM589:
 6548 00d4 DF91      		pop r29
 6549 00d6 CF91      		pop r28
 6550               	.LVL678:
 6551 00d8 1F91      		pop r17
 6552 00da 0F91      		pop r16
 6553 00dc 0895      		ret
 6554               	.LFE138:
 6556               		.section	.text.f_rename,"ax",@progbits
 6557               	.global	f_rename
 6559               	f_rename:
 6560               	.LFB172:
 6561               	.LSM590:
 6562               	.LVL679:
 6563 0000 CF92      		push r12
 6564 0002 DF92      		push r13
 6565 0004 EF92      		push r14
 6566 0006 FF92      		push r15
 6567 0008 0F93      		push r16
 6568 000a 1F93      		push r17
 6569 000c DF93      		push r29
 6570 000e CF93      		push r28
 6571 0010 CDB7      		in r28,__SP_L__
 6572 0012 DEB7      		in r29,__SP_H__
 6573 0014 CF54      		subi r28,lo8(-(-79))
 6574 0016 D040      		sbci r29,hi8(-(-79))
 6575 0018 0FB6      		in __tmp_reg__,__SREG__
 6576 001a F894      		cli
 6577 001c DEBF      		out __SP_H__,r29
 6578 001e 0FBE      		out __SREG__,__tmp_reg__
 6579 0020 CDBF      		out __SP_L__,r28
 6580               	/* prologue: function */
 6581               	/* frame size = 79 */
 6582 0022 8E01      		movw r16,r28
 6583 0024 025B      		subi r16,lo8(-(78))
 6584 0026 1F4F      		sbci r17,hi8(-(78))
 6585 0028 F801      		movw r30,r16
 6586 002a 9183      		std Z+1,r25
 6587 002c 8083      		st Z,r24
 6588 002e 6B01      		movw r12,r22
 6589               	.LSM591:
 6590 0030 82E2      		ldi r24,lo8(34)
 6591 0032 E82E      		mov r14,r24
 6592 0034 F12C      		mov r15,__zero_reg__
 6593               	.LVL680:
 6594 0036 EC0E      		add r14,r28
 6595 0038 FD1E      		adc r15,r29
 6596 003a C801      		movw r24,r16
 6597 003c B701      		movw r22,r14
 6598               	.LVL681:
 6599 003e 41E0      		ldi r20,lo8(1)
 6600 0040 0E94 0000 		call chk_mounted
 6601               	.LSM592:
 6602 0044 8823      		tst r24
 6603               	.LVL682:
 6604 0046 01F0      		breq .+2
 6605 0048 00C0      		rjmp .L345
 6606               	.LSM593:
 6607 004a 8AA1      		ldd r24,Y+34
 6608 004c 9BA1      		ldd r25,Y+35
 6609               	.LVL683:
 6610 004e 99AF      		std Y+57,r25
 6611 0050 88AF      		std Y+56,r24
 6612               	.LSM594:
 6613 0052 CE01      		movw r24,r28
 6614 0054 0196      		adiw r24,1
 6615 0056 9FAB      		std Y+55,r25
 6616 0058 8EAB      		std Y+54,r24
 6617               	.LSM595:
 6618 005a F801      		movw r30,r16
 6619 005c 6081      		ld r22,Z
 6620 005e 7181      		ldd r23,Z+1
 6621 0060 C701      		movw r24,r14
 6622 0062 0E94 0000 		call follow_path
 6623               	.LSM596:
 6624 0066 8823      		tst r24
 6625               	.LVL684:
 6626 0068 01F0      		breq .+2
 6627 006a 00C0      		rjmp .L345
 6628               	.LSM597:
 6629 006c 6CA9      		ldd r22,Y+52
 6630 006e 7DA9      		ldd r23,Y+53
 6631 0070 6115      		cp r22,__zero_reg__
 6632 0072 7105      		cpc r23,__zero_reg__
 6633 0074 01F4      		brne .L346
 6634 0076 84E0      		ldi r24,lo8(4)
 6635 0078 00C0      		rjmp .L345
 6636               	.L346:
 6637               	.LSM598:
 6638 007a 655F      		subi r22,lo8(-(11))
 6639 007c 7F4F      		sbci r23,hi8(-(11))
 6640 007e CE01      		movw r24,r28
 6641               	.LVL685:
 6642 0080 0D96      		adiw r24,13
 6643 0082 45E1      		ldi r20,lo8(21)
 6644 0084 50E0      		ldi r21,hi8(21)
 6645 0086 0E94 0000 		call mem_cpy
 6646               	.LSM599:
 6647 008a 8E01      		movw r16,r28
 6648 008c 085C      		subi r16,lo8(-(56))
 6649 008e 1F4F      		sbci r17,hi8(-(56))
 6650 0090 C801      		movw r24,r16
 6651 0092 B701      		movw r22,r14
 6652 0094 46E1      		ldi r20,lo8(22)
 6653 0096 50E0      		ldi r21,hi8(22)
 6654 0098 0E94 0000 		call mem_cpy
 6655               	.LSM600:
 6656 009c C801      		movw r24,r16
 6657 009e B601      		movw r22,r12
 6658 00a0 0E94 0000 		call follow_path
 6659               	.LSM601:
 6660 00a4 8823      		tst r24
 6661               	.LVL686:
 6662 00a6 01F4      		brne .L347
 6663 00a8 88E0      		ldi r24,lo8(8)
 6664 00aa 00C0      		rjmp .L345
 6665               	.L347:
 6666               	.LSM602:
 6667 00ac 8430      		cpi r24,lo8(4)
 6668 00ae 01F0      		breq .+2
 6669 00b0 00C0      		rjmp .L345
 6670               	.LSM603:
 6671 00b2 C801      		movw r24,r16
 6672               	.LVL687:
 6673 00b4 0E94 0000 		call dir_register
 6674               	.LSM604:
 6675 00b8 8823      		tst r24
 6676               	.LVL688:
 6677 00ba 01F0      		breq .+2
 6678 00bc 00C0      		rjmp .L345
 6679               	.LSM605:
 6680 00be FE01      		movw r30,r28
 6681 00c0 E65B      		subi r30,lo8(-(74))
 6682 00c2 FF4F      		sbci r31,hi8(-(74))
 6683 00c4 0081      		ld r16,Z
 6684 00c6 1181      		ldd r17,Z+1
 6685               	.LVL689:
 6686               	.LSM606:
 6687 00c8 C801      		movw r24,r16
 6688               	.LVL690:
 6689 00ca 0D96      		adiw r24,13
 6690 00cc BE01      		movw r22,r28
 6691 00ce 615F      		subi r22,lo8(-(15))
 6692 00d0 7F4F      		sbci r23,hi8(-(15))
 6693 00d2 43E1      		ldi r20,lo8(19)
 6694 00d4 50E0      		ldi r21,hi8(19)
 6695 00d6 0E94 0000 		call mem_cpy
 6696               	.LSM607:
 6697 00da 8D85      		ldd r24,Y+13
 6698 00dc 8062      		ori r24,lo8(32)
 6699 00de F801      		movw r30,r16
 6700 00e0 8387      		std Z+11,r24
 6701               	.LSM608:
 6702 00e2 EAA1      		ldd r30,Y+34
 6703 00e4 FBA1      		ldd r31,Y+35
 6704 00e6 81E0      		ldi r24,lo8(1)
 6705 00e8 8483      		std Z+4,r24
 6706               	.LSM609:
 6707 00ea 28A5      		ldd r18,Y+40
 6708 00ec 39A5      		ldd r19,Y+41
 6709 00ee 4AA5      		ldd r20,Y+42
 6710 00f0 5BA5      		ldd r21,Y+43
 6711 00f2 FE01      		movw r30,r28
 6712 00f4 FE96      		adiw r30,62
 6713 00f6 8081      		ld r24,Z
 6714 00f8 9181      		ldd r25,Z+1
 6715 00fa A281      		ldd r26,Z+2
 6716 00fc B381      		ldd r27,Z+3
 6717 00fe 2817      		cp r18,r24
 6718 0100 3907      		cpc r19,r25
 6719 0102 4A07      		cpc r20,r26
 6720 0104 5B07      		cpc r21,r27
 6721 0106 01F4      		brne .+2
 6722 0108 00C0      		rjmp .L348
 6723 010a F801      		movw r30,r16
 6724 010c 8385      		ldd r24,Z+11
 6725 010e 84FF      		sbrs r24,4
 6726 0110 00C0      		rjmp .L348
 6727               	.LSM610:
 6728 0112 E8AC      		ldd r14,Y+56
 6729 0114 F9AC      		ldd r15,Y+57
 6730 0116 428D      		ldd r20,Z+26
 6731 0118 538D      		ldd r21,Z+27
 6732 011a 8489      		ldd r24,Z+20
 6733 011c 9589      		ldd r25,Z+21
 6734 011e 482B      		or r20,r24
 6735 0120 592B      		or r21,r25
 6736 0122 60E0      		ldi r22,lo8(0)
 6737 0124 70E0      		ldi r23,hi8(0)
 6738 0126 C701      		movw r24,r14
 6739 0128 0E94 0000 		call clust2sect
 6740 012c AB01      		movw r20,r22
 6741 012e BC01      		movw r22,r24
 6742               	.LVL691:
 6743               	.LSM611:
 6744 0130 4115      		cp r20,__zero_reg__
 6745 0132 5105      		cpc r21,__zero_reg__
 6746 0134 6105      		cpc r22,__zero_reg__
 6747 0136 7105      		cpc r23,__zero_reg__
 6748 0138 01F4      		brne .L349
 6749 013a 82E0      		ldi r24,lo8(2)
 6750               	.LVL692:
 6751 013c 00C0      		rjmp .L345
 6752               	.LVL693:
 6753               	.L349:
 6754               	.LSM612:
 6755 013e C701      		movw r24,r14
 6756 0140 0E94 0000 		call move_window
 6757               	.LVL694:
 6758               	.LSM613:
 6759 0144 A8AD      		ldd r26,Y+56
 6760 0146 B9AD      		ldd r27,Y+57
 6761               	.LSM614:
 6762 0148 8823      		tst r24
 6763               	.LVL695:
 6764 014a 01F4      		brne .L345
 6765               	.LSM615:
 6766 014c BD01      		movw r22,r26
 6767               	.LVL696:
 6768 014e 625B      		subi r22,lo8(-(78))
 6769 0150 7F4F      		sbci r23,hi8(-(78))
 6770               	.LSM616:
 6771 0152 FB01      		movw r30,r22
 6772 0154 8181      		ldd r24,Z+1
 6773               	.LVL697:
 6774 0156 8E32      		cpi r24,lo8(46)
 6775 0158 01F4      		brne .L348
 6776               	.LSM617:
 6777 015a 8C91      		ld r24,X
 6778 015c 8330      		cpi r24,lo8(3)
 6779 015e 01F4      		brne .L350
 6780 0160 FE01      		movw r30,r28
 6781 0162 FE96      		adiw r30,62
 6782 0164 2081      		ld r18,Z
 6783 0166 3181      		ldd r19,Z+1
 6784 0168 4281      		ldd r20,Z+2
 6785 016a 5381      		ldd r21,Z+3
 6786 016c 9296      		adiw r26,34
 6787 016e 8D91      		ld r24,X+
 6788 0170 9D91      		ld r25,X+
 6789 0172 0D90      		ld __tmp_reg__,X+
 6790 0174 BC91      		ld r27,X
 6791 0176 A02D      		mov r26,__tmp_reg__
 6792 0178 2817      		cp r18,r24
 6793 017a 3907      		cpc r19,r25
 6794 017c 4A07      		cpc r20,r26
 6795 017e 5B07      		cpc r21,r27
 6796 0180 01F4      		brne .L350
 6797 0182 80E0      		ldi r24,lo8(0)
 6798 0184 90E0      		ldi r25,hi8(0)
 6799 0186 A0E0      		ldi r26,hlo8(0)
 6800 0188 B0E0      		ldi r27,hhi8(0)
 6801               	.LVL698:
 6802 018a 00C0      		rjmp .L351
 6803               	.LVL699:
 6804               	.L350:
 6805 018c FE01      		movw r30,r28
 6806 018e FE96      		adiw r30,62
 6807 0190 8081      		ld r24,Z
 6808 0192 9181      		ldd r25,Z+1
 6809 0194 A281      		ldd r26,Z+2
 6810 0196 B381      		ldd r27,Z+3
 6811               	.LVL700:
 6812               	.L351:
 6813               	.LSM618:
 6814 0198 FB01      		movw r30,r22
 6815 019a 938F      		std Z+27,r25
 6816 019c 828F      		std Z+26,r24
 6817               	.LSM619:
 6818 019e CD01      		movw r24,r26
 6819 01a0 AA27      		clr r26
 6820 01a2 BB27      		clr r27
 6821               	.LVL701:
 6822 01a4 958B      		std Z+21,r25
 6823 01a6 848B      		std Z+20,r24
 6824               	.LSM620:
 6825 01a8 E8AD      		ldd r30,Y+56
 6826 01aa F9AD      		ldd r31,Y+57
 6827 01ac 81E0      		ldi r24,lo8(1)
 6828 01ae 8483      		std Z+4,r24
 6829               	.LVL702:
 6830               	.L348:
 6831               	.LSM621:
 6832 01b0 CE01      		movw r24,r28
 6833 01b2 8296      		adiw r24,34
 6834 01b4 0E94 0000 		call dir_remove
 6835               	.LVL703:
 6836               	.LSM622:
 6837 01b8 8823      		tst r24
 6838               	.LVL704:
 6839 01ba 01F4      		brne .L345
 6840               	.LSM623:
 6841 01bc 8AA1      		ldd r24,Y+34
 6842 01be 9BA1      		ldd r25,Y+35
 6843               	.LVL705:
 6844 01c0 0E94 0000 		call sync
 6845               	.LVL706:
 6846               	.L345:
 6847               	.LVL707:
 6848               	/* epilogue start */
 6849               	.LSM624:
 6850 01c4 C15B      		subi r28,lo8(-(79))
 6851 01c6 DF4F      		sbci r29,hi8(-(79))
 6852 01c8 0FB6      		in __tmp_reg__,__SREG__
 6853 01ca F894      		cli
 6854 01cc DEBF      		out __SP_H__,r29
 6855 01ce 0FBE      		out __SREG__,__tmp_reg__
 6856 01d0 CDBF      		out __SP_L__,r28
 6857 01d2 CF91      		pop r28
 6858 01d4 DF91      		pop r29
 6859 01d6 1F91      		pop r17
 6860 01d8 0F91      		pop r16
 6861               	.LVL708:
 6862 01da FF90      		pop r15
 6863 01dc EF90      		pop r14
 6864 01de DF90      		pop r13
 6865 01e0 CF90      		pop r12
 6866               	.LVL709:
 6867 01e2 0895      		ret
 6868               	.LFE172:
 6870               		.section	.text.f_utime,"ax",@progbits
 6871               	.global	f_utime
 6873               	f_utime:
 6874               	.LFB171:
 6875               	.LSM625:
 6876               	.LVL710:
 6877 0000 EF92      		push r14
 6878 0002 FF92      		push r15
 6879 0004 0F93      		push r16
 6880 0006 1F93      		push r17
 6881 0008 DF93      		push r29
 6882 000a CF93      		push r28
 6883 000c CDB7      		in r28,__SP_L__
 6884 000e DEB7      		in r29,__SP_H__
 6885 0010 A497      		sbiw r28,36
 6886 0012 0FB6      		in __tmp_reg__,__SREG__
 6887 0014 F894      		cli
 6888 0016 DEBF      		out __SP_H__,r29
 6889 0018 0FBE      		out __SREG__,__tmp_reg__
 6890 001a CDBF      		out __SP_L__,r28
 6891               	/* prologue: function */
 6892               	/* frame size = 36 */
 6893 001c 9CA3      		std Y+36,r25
 6894 001e 8BA3      		std Y+35,r24
 6895 0020 8B01      		movw r16,r22
 6896               	.LSM626:
 6897 0022 9DE0      		ldi r25,lo8(13)
 6898 0024 E92E      		mov r14,r25
 6899 0026 F12C      		mov r15,__zero_reg__
 6900 0028 EC0E      		add r14,r28
 6901 002a FD1E      		adc r15,r29
 6902 002c CE01      		movw r24,r28
 6903               	.LVL711:
 6904 002e 8396      		adiw r24,35
 6905 0030 B701      		movw r22,r14
 6906               	.LVL712:
 6907 0032 41E0      		ldi r20,lo8(1)
 6908 0034 0E94 0000 		call chk_mounted
 6909               	.LSM627:
 6910 0038 8823      		tst r24
 6911               	.LVL713:
 6912 003a 01F4      		brne .L354
 6913               	.LSM628:
 6914 003c CE01      		movw r24,r28
 6915               	.LVL714:
 6916 003e 0196      		adiw r24,1
 6917 0040 9AA3      		std Y+34,r25
 6918 0042 89A3      		std Y+33,r24
 6919               	.LSM629:
 6920 0044 6BA1      		ldd r22,Y+35
 6921 0046 7CA1      		ldd r23,Y+36
 6922 0048 C701      		movw r24,r14
 6923 004a 0E94 0000 		call follow_path
 6924               	.LSM630:
 6925 004e 8823      		tst r24
 6926               	.LVL715:
 6927 0050 01F4      		brne .L354
 6928               	.LSM631:
 6929 0052 EF8D      		ldd r30,Y+31
 6930 0054 F8A1      		ldd r31,Y+32
 6931               	.LVL716:
 6932               	.LSM632:
 6933 0056 3097      		sbiw r30,0
 6934 0058 01F4      		brne .L355
 6935 005a 86E0      		ldi r24,lo8(6)
 6936 005c 00C0      		rjmp .L354
 6937               	.L355:
 6938               	.LSM633:
 6939 005e D801      		movw r26,r16
 6940 0060 1696      		adiw r26,6
 6941 0062 8D91      		ld r24,X+
 6942 0064 9C91      		ld r25,X
 6943 0066 1797      		sbiw r26,6+1
 6944               	.LVL717:
 6945 0068 978B      		std Z+23,r25
 6946 006a 868B      		std Z+22,r24
 6947               	.LSM634:
 6948 006c 1496      		adiw r26,4
 6949 006e 8D91      		ld r24,X+
 6950 0070 9C91      		ld r25,X
 6951 0072 1597      		sbiw r26,4+1
 6952 0074 918F      		std Z+25,r25
 6953 0076 808F      		std Z+24,r24
 6954               	.LSM635:
 6955 0078 ED85      		ldd r30,Y+13
 6956 007a FE85      		ldd r31,Y+14
 6957               	.LVL718:
 6958 007c 81E0      		ldi r24,lo8(1)
 6959 007e 8483      		std Z+4,r24
 6960               	.LSM636:
 6961 0080 CF01      		movw r24,r30
 6962 0082 0E94 0000 		call sync
 6963               	.LVL719:
 6964               	.L354:
 6965               	.LVL720:
 6966               	/* epilogue start */
 6967               	.LSM637:
 6968 0086 A496      		adiw r28,36
 6969 0088 0FB6      		in __tmp_reg__,__SREG__
 6970 008a F894      		cli
 6971 008c DEBF      		out __SP_H__,r29
 6972 008e 0FBE      		out __SREG__,__tmp_reg__
 6973 0090 CDBF      		out __SP_L__,r28
 6974 0092 CF91      		pop r28
 6975 0094 DF91      		pop r29
 6976 0096 1F91      		pop r17
 6977 0098 0F91      		pop r16
 6978               	.LVL721:
 6979 009a FF90      		pop r15
 6980 009c EF90      		pop r14
 6981 009e 0895      		ret
 6982               	.LFE171:
 6984               		.section	.text.f_chmod,"ax",@progbits
 6985               	.global	f_chmod
 6987               	f_chmod:
 6988               	.LFB170:
 6989               	.LSM638:
 6990               	.LVL722:
 6991 0000 EF92      		push r14
 6992 0002 FF92      		push r15
 6993 0004 0F93      		push r16
 6994 0006 1F93      		push r17
 6995 0008 DF93      		push r29
 6996 000a CF93      		push r28
 6997 000c CDB7      		in r28,__SP_L__
 6998 000e DEB7      		in r29,__SP_H__
 6999 0010 A497      		sbiw r28,36
 7000 0012 0FB6      		in __tmp_reg__,__SREG__
 7001 0014 F894      		cli
 7002 0016 DEBF      		out __SP_H__,r29
 7003 0018 0FBE      		out __SREG__,__tmp_reg__
 7004 001a CDBF      		out __SP_L__,r28
 7005               	/* prologue: function */
 7006               	/* frame size = 36 */
 7007 001c 9CA3      		std Y+36,r25
 7008 001e 8BA3      		std Y+35,r24
 7009 0020 E62E      		mov r14,r22
 7010 0022 F42E      		mov r15,r20
 7011               	.LSM639:
 7012 0024 8E01      		movw r16,r28
 7013 0026 035F      		subi r16,lo8(-(13))
 7014 0028 1F4F      		sbci r17,hi8(-(13))
 7015 002a CE01      		movw r24,r28
 7016               	.LVL723:
 7017 002c 8396      		adiw r24,35
 7018 002e B801      		movw r22,r16
 7019               	.LVL724:
 7020 0030 41E0      		ldi r20,lo8(1)
 7021               	.LVL725:
 7022 0032 0E94 0000 		call chk_mounted
 7023               	.LSM640:
 7024 0036 8823      		tst r24
 7025               	.LVL726:
 7026 0038 01F4      		brne .L358
 7027               	.LSM641:
 7028 003a CE01      		movw r24,r28
 7029               	.LVL727:
 7030 003c 0196      		adiw r24,1
 7031 003e 9AA3      		std Y+34,r25
 7032 0040 89A3      		std Y+33,r24
 7033               	.LSM642:
 7034 0042 6BA1      		ldd r22,Y+35
 7035 0044 7CA1      		ldd r23,Y+36
 7036 0046 C801      		movw r24,r16
 7037 0048 0E94 0000 		call follow_path
 7038               	.LSM643:
 7039 004c 8823      		tst r24
 7040               	.LVL728:
 7041 004e 01F4      		brne .L358
 7042               	.LSM644:
 7043 0050 EF8D      		ldd r30,Y+31
 7044 0052 F8A1      		ldd r31,Y+32
 7045               	.LVL729:
 7046               	.LSM645:
 7047 0054 3097      		sbiw r30,0
 7048 0056 01F4      		brne .L359
 7049 0058 86E0      		ldi r24,lo8(6)
 7050 005a 00C0      		rjmp .L358
 7051               	.L359:
 7052               	.LSM646:
 7053 005c 9F2D      		mov r25,r15
 7054 005e 9772      		andi r25,lo8(39)
 7055               	.LVL730:
 7056               	.LSM647:
 7057 0060 892F      		mov r24,r25
 7058               	.LVL731:
 7059 0062 8095      		com r24
 7060 0064 2385      		ldd r18,Z+11
 7061 0066 8223      		and r24,r18
 7062 0068 9E21      		and r25,r14
 7063 006a 892B      		or r24,r25
 7064 006c 8387      		std Z+11,r24
 7065               	.LSM648:
 7066 006e ED85      		ldd r30,Y+13
 7067 0070 FE85      		ldd r31,Y+14
 7068               	.LVL732:
 7069 0072 81E0      		ldi r24,lo8(1)
 7070 0074 8483      		std Z+4,r24
 7071               	.LSM649:
 7072 0076 CF01      		movw r24,r30
 7073 0078 0E94 0000 		call sync
 7074               	.LVL733:
 7075               	.L358:
 7076               	.LVL734:
 7077               	/* epilogue start */
 7078               	.LSM650:
 7079 007c A496      		adiw r28,36
 7080 007e 0FB6      		in __tmp_reg__,__SREG__
 7081 0080 F894      		cli
 7082 0082 DEBF      		out __SP_H__,r29
 7083 0084 0FBE      		out __SREG__,__tmp_reg__
 7084 0086 CDBF      		out __SP_L__,r28
 7085 0088 CF91      		pop r28
 7086 008a DF91      		pop r29
 7087 008c 1F91      		pop r17
 7088 008e 0F91      		pop r16
 7089 0090 FF90      		pop r15
 7090               	.LVL735:
 7091 0092 EF90      		pop r14
 7092               	.LVL736:
 7093 0094 0895      		ret
 7094               	.LFE170:
 7096               		.section	.text.f_unlink,"ax",@progbits
 7097               	.global	f_unlink
 7099               	f_unlink:
 7100               	.LFB168:
 7101               	.LSM651:
 7102               	.LVL737:
 7103 0000 CF92      		push r12
 7104 0002 DF92      		push r13
 7105 0004 EF92      		push r14
 7106 0006 FF92      		push r15
 7107 0008 0F93      		push r16
 7108 000a 1F93      		push r17
 7109 000c DF93      		push r29
 7110 000e CF93      		push r28
 7111 0010 CDB7      		in r28,__SP_L__
 7112 0012 DEB7      		in r29,__SP_H__
 7113 0014 EA97      		sbiw r28,58
 7114 0016 0FB6      		in __tmp_reg__,__SREG__
 7115 0018 F894      		cli
 7116 001a DEBF      		out __SP_H__,r29
 7117 001c 0FBE      		out __SREG__,__tmp_reg__
 7118 001e CDBF      		out __SP_L__,r28
 7119               	/* prologue: function */
 7120               	/* frame size = 58 */
 7121 0020 9AAF      		std Y+58,r25
 7122 0022 89AF      		std Y+57,r24
 7123               	.LSM652:
 7124 0024 8E01      		movw r16,r28
 7125 0026 035F      		subi r16,lo8(-(13))
 7126 0028 1F4F      		sbci r17,hi8(-(13))
 7127 002a CE01      		movw r24,r28
 7128               	.LVL738:
 7129 002c C996      		adiw r24,57
 7130 002e B801      		movw r22,r16
 7131 0030 41E0      		ldi r20,lo8(1)
 7132 0032 0E94 0000 		call chk_mounted
 7133 0036 282F      		mov r18,r24
 7134               	.LVL739:
 7135               	.LSM653:
 7136 0038 8823      		tst r24
 7137 003a 01F0      		breq .+2
 7138 003c 00C0      		rjmp .L362
 7139               	.LVL740:
 7140               	.LSM654:
 7141 003e CE01      		movw r24,r28
 7142               	.LVL741:
 7143 0040 0196      		adiw r24,1
 7144 0042 9AA3      		std Y+34,r25
 7145 0044 89A3      		std Y+33,r24
 7146               	.LSM655:
 7147 0046 69AD      		ldd r22,Y+57
 7148 0048 7AAD      		ldd r23,Y+58
 7149 004a C801      		movw r24,r16
 7150 004c 0E94 0000 		call follow_path
 7151               	.LVL742:
 7152 0050 282F      		mov r18,r24
 7153               	.LVL743:
 7154               	.LSM656:
 7155 0052 8823      		tst r24
 7156 0054 01F0      		breq .+2
 7157 0056 00C0      		rjmp .L362
 7158               	.LVL744:
 7159               	.LSM657:
 7160 0058 EF8D      		ldd r30,Y+31
 7161 005a F8A1      		ldd r31,Y+32
 7162               	.LVL745:
 7163               	.LSM658:
 7164 005c 3097      		sbiw r30,0
 7165 005e 01F4      		brne .L363
 7166 0060 26E0      		ldi r18,lo8(6)
 7167               	.LVL746:
 7168 0062 00C0      		rjmp .L364
 7169               	.LVL747:
 7170               	.L363:
 7171               	.LSM659:
 7172 0064 8385      		ldd r24,Z+11
 7173               	.LVL748:
 7174 0066 80FD      		sbrc r24,0
 7175 0068 27E0      		ldi r18,lo8(7)
 7176               	.L364:
 7177               	.LSM660:
 7178 006a 8489      		ldd r24,Z+20
 7179 006c 9589      		ldd r25,Z+21
 7180 006e 428D      		ldd r20,Z+26
 7181 0070 538D      		ldd r21,Z+27
 7182               	.LSM661:
 7183 0072 2223      		tst r18
 7184 0074 01F0      		breq .+2
 7185 0076 00C0      		rjmp .L362
 7186               	.LSM662:
 7187 0078 A0E0      		ldi r26,lo8(0)
 7188 007a B0E0      		ldi r27,hi8(0)
 7189 007c 8C01      		movw r16,r24
 7190 007e FF24      		clr r15
 7191 0080 EE24      		clr r14
 7192               	.LVL749:
 7193 0082 CA01      		movw r24,r20
 7194 0084 A0E0      		ldi r26,lo8(0)
 7195 0086 B0E0      		ldi r27,hi8(0)
 7196 0088 E82A      		or r14,r24
 7197 008a F92A      		or r15,r25
 7198 008c 0A2B      		or r16,r26
 7199 008e 1B2B      		or r17,r27
 7200               	.LSM663:
 7201 0090 8385      		ldd r24,Z+11
 7202 0092 84FF      		sbrs r24,4
 7203 0094 00C0      		rjmp .L365
 7204               	.LSM664:
 7205 0096 82E0      		ldi r24,lo8(2)
 7206 0098 E816      		cp r14,r24
 7207 009a F104      		cpc r15,__zero_reg__
 7208 009c 0105      		cpc r16,__zero_reg__
 7209 009e 1105      		cpc r17,__zero_reg__
 7210 00a0 00F4      		brsh .L366
 7211 00a2 22E0      		ldi r18,lo8(2)
 7212 00a4 00C0      		rjmp .L362
 7213               	.L366:
 7214               	.LSM665:
 7215 00a6 23E2      		ldi r18,lo8(35)
 7216 00a8 C22E      		mov r12,r18
 7217 00aa D12C      		mov r13,__zero_reg__
 7218               	.LVL750:
 7219 00ac CC0E      		add r12,r28
 7220 00ae DD1E      		adc r13,r29
 7221 00b0 C601      		movw r24,r12
 7222 00b2 BE01      		movw r22,r28
 7223 00b4 635F      		subi r22,lo8(-(13))
 7224 00b6 7F4F      		sbci r23,hi8(-(13))
 7225 00b8 46E1      		ldi r20,lo8(22)
 7226 00ba 50E0      		ldi r21,hi8(22)
 7227 00bc 0E94 0000 		call mem_cpy
 7228               	.LVL751:
 7229               	.LSM666:
 7230 00c0 E9A6      		std Y+41,r14
 7231 00c2 FAA6      		std Y+42,r15
 7232 00c4 0BA7      		std Y+43,r16
 7233 00c6 1CA7      		std Y+44,r17
 7234               	.LSM667:
 7235 00c8 C601      		movw r24,r12
 7236 00ca 62E0      		ldi r22,lo8(2)
 7237 00cc 70E0      		ldi r23,hi8(2)
 7238 00ce 0E94 0000 		call dir_sdi
 7239 00d2 282F      		mov r18,r24
 7240               	.LVL752:
 7241               	.LSM668:
 7242 00d4 8823      		tst r24
 7243 00d6 01F4      		brne .L362
 7244               	.LVL753:
 7245               	.LSM669:
 7246 00d8 C601      		movw r24,r12
 7247               	.LVL754:
 7248 00da 0E94 0000 		call dir_read
 7249               	.LVL755:
 7250 00de 282F      		mov r18,r24
 7251               	.LVL756:
 7252               	.LSM670:
 7253 00e0 8823      		tst r24
 7254 00e2 01F0      		breq .L367
 7255               	.LVL757:
 7256               	.LSM671:
 7257 00e4 8430      		cpi r24,lo8(4)
 7258 00e6 01F0      		breq .L365
 7259 00e8 00C0      		rjmp .L362
 7260               	.L369:
 7261               	.LSM672:
 7262 00ea E114      		cp r14,__zero_reg__
 7263 00ec F104      		cpc r15,__zero_reg__
 7264 00ee 0105      		cpc r16,__zero_reg__
 7265 00f0 1105      		cpc r17,__zero_reg__
 7266 00f2 01F0      		breq .L368
 7267               	.LSM673:
 7268 00f4 8D85      		ldd r24,Y+13
 7269 00f6 9E85      		ldd r25,Y+14
 7270               	.LVL758:
 7271 00f8 B801      		movw r22,r16
 7272 00fa A701      		movw r20,r14
 7273 00fc 0E94 0000 		call remove_chain
 7274               	.LVL759:
 7275 0100 282F      		mov r18,r24
 7276               	.LVL760:
 7277               	.LSM674:
 7278 0102 8823      		tst r24
 7279 0104 01F4      		brne .L362
 7280               	.LVL761:
 7281               	.L368:
 7282 0106 8D85      		ldd r24,Y+13
 7283 0108 9E85      		ldd r25,Y+14
 7284               	.LVL762:
 7285 010a 0E94 0000 		call sync
 7286               	.LVL763:
 7287 010e 282F      		mov r18,r24
 7288               	.LVL764:
 7289               	.L362:
 7290               	.LSM675:
 7291 0110 822F      		mov r24,r18
 7292               	/* epilogue start */
 7293 0112 EA96      		adiw r28,58
 7294 0114 0FB6      		in __tmp_reg__,__SREG__
 7295 0116 F894      		cli
 7296 0118 DEBF      		out __SP_H__,r29
 7297 011a 0FBE      		out __SREG__,__tmp_reg__
 7298 011c CDBF      		out __SP_L__,r28
 7299 011e CF91      		pop r28
 7300 0120 DF91      		pop r29
 7301 0122 1F91      		pop r17
 7302 0124 0F91      		pop r16
 7303 0126 FF90      		pop r15
 7304 0128 EF90      		pop r14
 7305               	.LVL765:
 7306 012a DF90      		pop r13
 7307 012c CF90      		pop r12
 7308 012e 0895      		ret
 7309               	.LVL766:
 7310               	.L367:
 7311               	.LSM676:
 7312 0130 27E0      		ldi r18,lo8(7)
 7313               	.LVL767:
 7314 0132 00C0      		rjmp .L362
 7315               	.LVL768:
 7316               	.L365:
 7317               	.LSM677:
 7318 0134 CE01      		movw r24,r28
 7319 0136 0D96      		adiw r24,13
 7320 0138 0E94 0000 		call dir_remove
 7321               	.LVL769:
 7322 013c 282F      		mov r18,r24
 7323               	.LVL770:
 7324               	.LSM678:
 7325 013e 8823      		tst r24
 7326 0140 01F0      		breq .L369
 7327               	.LVL771:
 7328 0142 00C0      		rjmp .L362
 7329               	.LFE168:
 7331               		.section	.text.f_mkdir,"ax",@progbits
 7332               	.global	f_mkdir
 7334               	f_mkdir:
 7335               	.LFB169:
 7336               	.LSM679:
 7337               	.LVL772:
 7338 0000 2F92      		push r2
 7339 0002 3F92      		push r3
 7340 0004 4F92      		push r4
 7341 0006 5F92      		push r5
 7342 0008 6F92      		push r6
 7343 000a 7F92      		push r7
 7344 000c 8F92      		push r8
 7345 000e 9F92      		push r9
 7346 0010 AF92      		push r10
 7347 0012 BF92      		push r11
 7348 0014 CF92      		push r12
 7349 0016 DF92      		push r13
 7350 0018 FF92      		push r15
 7351 001a 0F93      		push r16
 7352 001c 1F93      		push r17
 7353 001e DF93      		push r29
 7354 0020 CF93      		push r28
 7355 0022 CDB7      		in r28,__SP_L__
 7356 0024 DEB7      		in r29,__SP_H__
 7357 0026 AA97      		sbiw r28,42
 7358 0028 0FB6      		in __tmp_reg__,__SREG__
 7359 002a F894      		cli
 7360 002c DEBF      		out __SP_H__,r29
 7361 002e 0FBE      		out __SREG__,__tmp_reg__
 7362 0030 CDBF      		out __SP_L__,r28
 7363               	/* prologue: function */
 7364               	/* frame size = 42 */
 7365 0032 9CA3      		std Y+36,r25
 7366 0034 8BA3      		std Y+35,r24
 7367               	.LSM680:
 7368 0036 0E94 0000 		call get_fattime
 7369               	.LVL773:
 7370 003a 6DA3      		std Y+37,r22
 7371 003c 7EA3      		std Y+38,r23
 7372 003e 8FA3      		std Y+39,r24
 7373 0040 98A7      		std Y+40,r25
 7374               	.LVL774:
 7375               	.LSM681:
 7376 0042 ADE0      		ldi r26,lo8(13)
 7377 0044 CA2E      		mov r12,r26
 7378 0046 D12C      		mov r13,__zero_reg__
 7379 0048 CC0E      		add r12,r28
 7380 004a DD1E      		adc r13,r29
 7381 004c CE01      		movw r24,r28
 7382 004e 8396      		adiw r24,35
 7383 0050 B601      		movw r22,r12
 7384 0052 41E0      		ldi r20,lo8(1)
 7385 0054 0E94 0000 		call chk_mounted
 7386 0058 082F      		mov r16,r24
 7387               	.LVL775:
 7388               	.LSM682:
 7389 005a 8823      		tst r24
 7390 005c 01F0      		breq .+2
 7391 005e 00C0      		rjmp .L372
 7392               	.LVL776:
 7393               	.LSM683:
 7394 0060 CE01      		movw r24,r28
 7395               	.LVL777:
 7396 0062 0196      		adiw r24,1
 7397 0064 9AA3      		std Y+34,r25
 7398 0066 89A3      		std Y+33,r24
 7399               	.LSM684:
 7400 0068 6BA1      		ldd r22,Y+35
 7401 006a 7CA1      		ldd r23,Y+36
 7402 006c C601      		movw r24,r12
 7403 006e 0E94 0000 		call follow_path
 7404 0072 082F      		mov r16,r24
 7405               	.LSM685:
 7406 0074 8823      		tst r24
 7407 0076 01F4      		brne .L373
 7408               	.LVL778:
 7409 0078 08E0      		ldi r16,lo8(8)
 7410               	.LVL779:
 7411 007a 00C0      		rjmp .L372
 7412               	.LVL780:
 7413               	.L373:
 7414               	.LSM686:
 7415 007c 8430      		cpi r24,lo8(4)
 7416 007e 01F0      		breq .+2
 7417 0080 00C0      		rjmp .L372
 7418               	.LSM687:
 7419 0082 8D85      		ldd r24,Y+13
 7420 0084 9E85      		ldd r25,Y+14
 7421               	.LVL781:
 7422 0086 40E0      		ldi r20,lo8(0)
 7423 0088 50E0      		ldi r21,hi8(0)
 7424 008a 60E0      		ldi r22,hlo8(0)
 7425 008c 70E0      		ldi r23,hhi8(0)
 7426 008e 0E94 0000 		call create_chain
 7427 0092 5B01      		movw r10,r22
 7428 0094 6C01      		movw r12,r24
 7429               	.LVL782:
 7430               	.LSM688:
 7431 0096 6115      		cp r22,__zero_reg__
 7432 0098 7105      		cpc r23,__zero_reg__
 7433 009a 8105      		cpc r24,__zero_reg__
 7434 009c 9105      		cpc r25,__zero_reg__
 7435 009e 01F4      		brne .L374
 7436               	.LVL783:
 7437 00a0 07E0      		ldi r16,lo8(7)
 7438 00a2 00C0      		rjmp .L375
 7439               	.L374:
 7440               	.LSM689:
 7441 00a4 81E0      		ldi r24,lo8(1)
 7442 00a6 A816      		cp r10,r24
 7443 00a8 B104      		cpc r11,__zero_reg__
 7444 00aa C104      		cpc r12,__zero_reg__
 7445 00ac D104      		cpc r13,__zero_reg__
 7446 00ae 01F4      		brne .L376
 7447               	.LVL784:
 7448 00b0 02E0      		ldi r16,lo8(2)
 7449 00b2 00C0      		rjmp .L375
 7450               	.L376:
 7451               	.LSM690:
 7452 00b4 9FEF      		ldi r25,lo8(-1)
 7453 00b6 A916      		cp r10,r25
 7454 00b8 9FEF      		ldi r25,hi8(-1)
 7455 00ba B906      		cpc r11,r25
 7456 00bc 9FEF      		ldi r25,hlo8(-1)
 7457 00be C906      		cpc r12,r25
 7458 00c0 9FEF      		ldi r25,hhi8(-1)
 7459 00c2 D906      		cpc r13,r25
 7460 00c4 01F4      		brne .+2
 7461 00c6 00C0      		rjmp .L377
 7462               	.LSM691:
 7463 00c8 8D85      		ldd r24,Y+13
 7464 00ca 9E85      		ldd r25,Y+14
 7465 00cc 40E0      		ldi r20,lo8(0)
 7466 00ce 50E0      		ldi r21,hi8(0)
 7467 00d0 60E0      		ldi r22,hlo8(0)
 7468 00d2 70E0      		ldi r23,hhi8(0)
 7469 00d4 0E94 0000 		call move_window
 7470 00d8 082F      		mov r16,r24
 7471               	.LSM692:
 7472 00da 8823      		tst r24
 7473 00dc 01F0      		breq .+2
 7474 00de 00C0      		rjmp .L375
 7475               	.LVL785:
 7476               	.LSM693:
 7477 00e0 0D85      		ldd r16,Y+13
 7478 00e2 1E85      		ldd r17,Y+14
 7479 00e4 C801      		movw r24,r16
 7480               	.LVL786:
 7481 00e6 B601      		movw r22,r12
 7482 00e8 A501      		movw r20,r10
 7483 00ea 0E94 0000 		call clust2sect
 7484 00ee 2B01      		movw r4,r22
 7485 00f0 3C01      		movw r6,r24
 7486               	.LVL787:
 7487               	.LSM694:
 7488 00f2 FEE2      		ldi r31,lo8(46)
 7489 00f4 8F2E      		mov r8,r31
 7490 00f6 912C      		mov r9,__zero_reg__
 7491               	.LVL788:
 7492 00f8 800E      		add r8,r16
 7493 00fa 911E      		adc r9,r17
 7494               	.LSM695:
 7495 00fc C401      		movw r24,r8
 7496 00fe 60E0      		ldi r22,lo8(0)
 7497 0100 70E0      		ldi r23,hi8(0)
 7498 0102 40E0      		ldi r20,lo8(512)
 7499 0104 52E0      		ldi r21,hi8(512)
 7500 0106 0E94 0000 		call mem_set
 7501               	.LSM696:
 7502 010a C401      		movw r24,r8
 7503 010c 60E2      		ldi r22,lo8(32)
 7504 010e 70E0      		ldi r23,hi8(32)
 7505 0110 4BE0      		ldi r20,lo8(11)
 7506 0112 50E0      		ldi r21,hi8(11)
 7507 0114 0E94 0000 		call mem_set
 7508               	.LSM697:
 7509 0118 EEE2      		ldi r30,lo8(46)
 7510 011a FE2E      		mov r15,r30
 7511 011c D801      		movw r26,r16
 7512 011e 9E96      		adiw r26,46
 7513 0120 FC92      		st X,r15
 7514 0122 9E97      		sbiw r26,46
 7515               	.LSM698:
 7516 0124 80E1      		ldi r24,lo8(16)
 7517 0126 D996      		adiw r26,57
 7518 0128 8C93      		st X,r24
 7519               	.LSM699:
 7520 012a 8DA1      		ldd r24,Y+37
 7521 012c 9EA1      		ldd r25,Y+38
 7522 012e AFA1      		ldd r26,Y+39
 7523 0130 B8A5      		ldd r27,Y+40
 7524 0132 F401      		movw r30,r8
 7525 0134 868B      		std Z+22,r24
 7526 0136 978B      		std Z+23,r25
 7527 0138 A08F      		std Z+24,r26
 7528 013a B18F      		std Z+25,r27
 7529               	.LSM700:
 7530 013c BAA6      		std Y+42,r11
 7531 013e A9A6      		std Y+41,r10
 7532 0140 B38E      		std Z+27,r11
 7533 0142 A28E      		std Z+26,r10
 7534               	.LSM701:
 7535 0144 C601      		movw r24,r12
 7536 0146 AA27      		clr r26
 7537 0148 BB27      		clr r27
 7538 014a 1C01      		movw r2,r24
 7539 014c 958B      		std Z+21,r25
 7540 014e 848B      		std Z+20,r24
 7541               	.LSM702:
 7542 0150 C401      		movw r24,r8
 7543 0152 8096      		adiw r24,32
 7544 0154 B401      		movw r22,r8
 7545 0156 40E2      		ldi r20,lo8(32)
 7546 0158 50E0      		ldi r21,hi8(32)
 7547 015a 0E94 0000 		call mem_cpy
 7548               	.LSM703:
 7549 015e 015B      		subi r16,lo8(-(79))
 7550 0160 1F4F      		sbci r17,hi8(-(79))
 7551 0162 D801      		movw r26,r16
 7552 0164 FC92      		st X,r15
 7553 0166 2B89      		ldd r18,Y+19
 7554 0168 3C89      		ldd r19,Y+20
 7555 016a 4D89      		ldd r20,Y+21
 7556 016c 5E89      		ldd r21,Y+22
 7557               	.LVL789:
 7558               	.LSM704:
 7559 016e ED85      		ldd r30,Y+13
 7560 0170 FE85      		ldd r31,Y+14
 7561 0172 8081      		ld r24,Z
 7562 0174 8330      		cpi r24,lo8(3)
 7563 0176 01F4      		brne .L378
 7564 0178 82A1      		ldd r24,Z+34
 7565 017a 93A1      		ldd r25,Z+35
 7566 017c A4A1      		ldd r26,Z+36
 7567 017e B5A1      		ldd r27,Z+37
 7568 0180 2817      		cp r18,r24
 7569 0182 3907      		cpc r19,r25
 7570 0184 4A07      		cpc r20,r26
 7571 0186 5B07      		cpc r21,r27
 7572 0188 01F4      		brne .L378
 7573 018a 20E0      		ldi r18,lo8(0)
 7574 018c 30E0      		ldi r19,hi8(0)
 7575 018e 40E0      		ldi r20,hlo8(0)
 7576 0190 50E0      		ldi r21,hhi8(0)
 7577               	.L378:
 7578               	.LSM705:
 7579 0192 F401      		movw r30,r8
 7580 0194 33AF      		std Z+59,r19
 7581 0196 22AF      		std Z+58,r18
 7582               	.LSM706:
 7583 0198 CA01      		movw r24,r20
 7584 019a AA27      		clr r26
 7585 019c BB27      		clr r27
 7586 019e 95AB      		std Z+53,r25
 7587 01a0 84AB      		std Z+52,r24
 7588               	.LSM707:
 7589 01a2 ED85      		ldd r30,Y+13
 7590 01a4 FE85      		ldd r31,Y+14
 7591 01a6 F280      		ldd r15,Z+2
 7592               	.LVL790:
 7593               	.LSM708:
 7594 01a8 11E0      		ldi r17,lo8(1)
 7595 01aa 00C0      		rjmp .L379
 7596               	.LVL791:
 7597               	.L380:
 7598               	.LSM709:
 7599 01ac ED85      		ldd r30,Y+13
 7600 01ae FE85      		ldd r31,Y+14
 7601 01b0 42A6      		std Z+42,r4
 7602 01b2 53A6      		std Z+43,r5
 7603 01b4 64A6      		std Z+44,r6
 7604 01b6 75A6      		std Z+45,r7
 7605               	.LSM710:
 7606 01b8 1483      		std Z+4,r17
 7607               	.LSM711:
 7608 01ba CF01      		movw r24,r30
 7609 01bc 40E0      		ldi r20,lo8(0)
 7610 01be 50E0      		ldi r21,hi8(0)
 7611 01c0 60E0      		ldi r22,hlo8(0)
 7612 01c2 70E0      		ldi r23,hhi8(0)
 7613 01c4 0E94 0000 		call move_window
 7614               	.LVL792:
 7615 01c8 082F      		mov r16,r24
 7616               	.LSM712:
 7617 01ca 8823      		tst r24
 7618 01cc 01F4      		brne .L375
 7619               	.LVL793:
 7620               	.LSM713:
 7621 01ce 0894      		sec
 7622 01d0 411C      		adc r4,__zero_reg__
 7623 01d2 511C      		adc r5,__zero_reg__
 7624 01d4 611C      		adc r6,__zero_reg__
 7625 01d6 711C      		adc r7,__zero_reg__
 7626               	.LSM714:
 7627 01d8 C401      		movw r24,r8
 7628               	.LVL794:
 7629 01da 60E0      		ldi r22,lo8(0)
 7630 01dc 70E0      		ldi r23,hi8(0)
 7631 01de 40E0      		ldi r20,lo8(512)
 7632 01e0 52E0      		ldi r21,hi8(512)
 7633 01e2 0E94 0000 		call mem_set
 7634               	.LSM715:
 7635 01e6 FA94      		dec r15
 7636               	.LVL795:
 7637               	.L379:
 7638 01e8 FF20      		tst r15
 7639 01ea 01F4      		brne .L380
 7640 01ec 00C0      		rjmp .L386
 7641               	.LVL796:
 7642               	.L375:
 7643               	.LSM716:
 7644 01ee 8D85      		ldd r24,Y+13
 7645 01f0 9E85      		ldd r25,Y+14
 7646 01f2 B601      		movw r22,r12
 7647 01f4 A501      		movw r20,r10
 7648 01f6 0E94 0000 		call remove_chain
 7649 01fa 00C0      		rjmp .L372
 7650               	.LVL797:
 7651               	.L385:
 7652               	.LSM717:
 7653 01fc EF8D      		ldd r30,Y+31
 7654 01fe F8A1      		ldd r31,Y+32
 7655               	.LVL798:
 7656               	.LSM718:
 7657 0200 80E1      		ldi r24,lo8(16)
 7658               	.LVL799:
 7659 0202 8387      		std Z+11,r24
 7660               	.LSM719:
 7661 0204 8DA1      		ldd r24,Y+37
 7662 0206 9EA1      		ldd r25,Y+38
 7663 0208 AFA1      		ldd r26,Y+39
 7664 020a B8A5      		ldd r27,Y+40
 7665 020c 868B      		std Z+22,r24
 7666 020e 978B      		std Z+23,r25
 7667 0210 A08F      		std Z+24,r26
 7668 0212 B18F      		std Z+25,r27
 7669               	.LSM720:
 7670 0214 A9A5      		ldd r26,Y+41
 7671 0216 BAA5      		ldd r27,Y+42
 7672 0218 B38F      		std Z+27,r27
 7673 021a A28F      		std Z+26,r26
 7674               	.LSM721:
 7675 021c 358A      		std Z+21,r3
 7676 021e 248A      		std Z+20,r2
 7677               	.LSM722:
 7678 0220 ED85      		ldd r30,Y+13
 7679 0222 FE85      		ldd r31,Y+14
 7680               	.LVL800:
 7681 0224 81E0      		ldi r24,lo8(1)
 7682 0226 8483      		std Z+4,r24
 7683               	.LSM723:
 7684 0228 CF01      		movw r24,r30
 7685 022a 0E94 0000 		call sync
 7686 022e 082F      		mov r16,r24
 7687               	.LVL801:
 7688               	.L372:
 7689               	.LSM724:
 7690 0230 802F      		mov r24,r16
 7691               	/* epilogue start */
 7692 0232 AA96      		adiw r28,42
 7693 0234 0FB6      		in __tmp_reg__,__SREG__
 7694 0236 F894      		cli
 7695 0238 DEBF      		out __SP_H__,r29
 7696 023a 0FBE      		out __SREG__,__tmp_reg__
 7697 023c CDBF      		out __SP_L__,r28
 7698 023e CF91      		pop r28
 7699 0240 DF91      		pop r29
 7700 0242 1F91      		pop r17
 7701 0244 0F91      		pop r16
 7702               	.LVL802:
 7703 0246 FF90      		pop r15
 7704               	.LVL803:
 7705 0248 DF90      		pop r13
 7706 024a CF90      		pop r12
 7707 024c BF90      		pop r11
 7708 024e AF90      		pop r10
 7709               	.LVL804:
 7710 0250 9F90      		pop r9
 7711 0252 8F90      		pop r8
 7712               	.LVL805:
 7713 0254 7F90      		pop r7
 7714 0256 6F90      		pop r6
 7715 0258 5F90      		pop r5
 7716 025a 4F90      		pop r4
 7717               	.LVL806:
 7718 025c 3F90      		pop r3
 7719 025e 2F90      		pop r2
 7720 0260 0895      		ret
 7721               	.LVL807:
 7722               	.L377:
 7723               	.LSM725:
 7724 0262 01E0      		ldi r16,lo8(1)
 7725 0264 00C0      		rjmp .L375
 7726               	.LVL808:
 7727               	.L386:
 7728               	.LSM726:
 7729 0266 CE01      		movw r24,r28
 7730 0268 0D96      		adiw r24,13
 7731 026a 0E94 0000 		call dir_register
 7732               	.LVL809:
 7733 026e 082F      		mov r16,r24
 7734               	.LSM727:
 7735 0270 8823      		tst r24
 7736 0272 01F0      		breq .L385
 7737               	.LVL810:
 7738 0274 00C0      		rjmp .L375
 7739               	.LFE169:
 7741               		.section	.text.f_sync,"ax",@progbits
 7742               	.global	f_sync
 7744               	f_sync:
 7745               	.LFB160:
 7746               	.LSM728:
 7747               	.LVL811:
 7748 0000 0F93      		push r16
 7749 0002 1F93      		push r17
 7750 0004 CF93      		push r28
 7751 0006 DF93      		push r29
 7752               	/* prologue: function */
 7753               	/* frame size = 0 */
 7754 0008 EC01      		movw r28,r24
 7755               	.LSM729:
 7756 000a 6A81      		ldd r22,Y+2
 7757 000c 7B81      		ldd r23,Y+3
 7758 000e 8881      		ld r24,Y
 7759 0010 9981      		ldd r25,Y+1
 7760               	.LVL812:
 7761 0012 0E94 0000 		call validate
 7762 0016 982F      		mov r25,r24
 7763               	.LVL813:
 7764               	.LSM730:
 7765 0018 8823      		tst r24
 7766 001a 01F4      		brne .L388
 7767               	.LVL814:
 7768               	.LSM731:
 7769 001c 8C81      		ldd r24,Y+4
 7770               	.LVL815:
 7771 001e 85FF      		sbrs r24,5
 7772 0020 00C0      		rjmp .L388
 7773               	.LSM732:
 7774 0022 4A8D      		ldd r20,Y+26
 7775 0024 5B8D      		ldd r21,Y+27
 7776 0026 6C8D      		ldd r22,Y+28
 7777 0028 7D8D      		ldd r23,Y+29
 7778 002a 8881      		ld r24,Y
 7779 002c 9981      		ldd r25,Y+1
 7780 002e 0E94 0000 		call move_window
 7781               	.LVL816:
 7782 0032 982F      		mov r25,r24
 7783               	.LVL817:
 7784               	.LSM733:
 7785 0034 8823      		tst r24
 7786 0036 01F4      		brne .L388
 7787               	.LVL818:
 7788               	.LSM734:
 7789 0038 0E8D      		ldd r16,Y+30
 7790 003a 1F8D      		ldd r17,Y+31
 7791               	.LVL819:
 7792               	.LSM735:
 7793 003c F801      		movw r30,r16
 7794 003e 8385      		ldd r24,Z+11
 7795               	.LVL820:
 7796 0040 8062      		ori r24,lo8(32)
 7797 0042 8387      		std Z+11,r24
 7798               	.LSM736:
 7799 0044 8A85      		ldd r24,Y+10
 7800 0046 9B85      		ldd r25,Y+11
 7801 0048 AC85      		ldd r26,Y+12
 7802 004a BD85      		ldd r27,Y+13
 7803 004c 848F      		std Z+28,r24
 7804 004e 958F      		std Z+29,r25
 7805 0050 A68F      		std Z+30,r26
 7806 0052 B78F      		std Z+31,r27
 7807               	.LSM737:
 7808 0054 8E85      		ldd r24,Y+14
 7809 0056 9F85      		ldd r25,Y+15
 7810 0058 938F      		std Z+27,r25
 7811 005a 828F      		std Z+26,r24
 7812               	.LSM738:
 7813 005c 8E85      		ldd r24,Y+14
 7814 005e 9F85      		ldd r25,Y+15
 7815 0060 A889      		ldd r26,Y+16
 7816 0062 B989      		ldd r27,Y+17
 7817 0064 CD01      		movw r24,r26
 7818 0066 AA27      		clr r26
 7819 0068 BB27      		clr r27
 7820 006a 958B      		std Z+21,r25
 7821 006c 848B      		std Z+20,r24
 7822               	.LSM739:
 7823 006e 0E94 0000 		call get_fattime
 7824               	.LVL821:
 7825               	.LSM740:
 7826 0072 F801      		movw r30,r16
 7827 0074 668B      		std Z+22,r22
 7828 0076 778B      		std Z+23,r23
 7829 0078 808F      		std Z+24,r24
 7830 007a 918F      		std Z+25,r25
 7831               	.LVL822:
 7832               	.LSM741:
 7833 007c 8C81      		ldd r24,Y+4
 7834 007e 8F7D      		andi r24,lo8(-33)
 7835 0080 8C83      		std Y+4,r24
 7836               	.LSM742:
 7837 0082 E881      		ld r30,Y
 7838 0084 F981      		ldd r31,Y+1
 7839 0086 81E0      		ldi r24,lo8(1)
 7840 0088 8483      		std Z+4,r24
 7841               	.LSM743:
 7842 008a 8881      		ld r24,Y
 7843 008c 9981      		ldd r25,Y+1
 7844 008e 0E94 0000 		call sync
 7845               	.LVL823:
 7846 0092 982F      		mov r25,r24
 7847               	.LVL824:
 7848               	.L388:
 7849               	.LSM744:
 7850 0094 892F      		mov r24,r25
 7851               	/* epilogue start */
 7852 0096 DF91      		pop r29
 7853 0098 CF91      		pop r28
 7854               	.LVL825:
 7855 009a 1F91      		pop r17
 7856 009c 0F91      		pop r16
 7857               	.LVL826:
 7858 009e 0895      		ret
 7859               	.LFE160:
 7861               		.section	.text.f_close,"ax",@progbits
 7862               	.global	f_close
 7864               	f_close:
 7865               	.LFB161:
 7866               	.LSM745:
 7867               	.LVL827:
 7868 0000 CF93      		push r28
 7869 0002 DF93      		push r29
 7870               	/* prologue: function */
 7871               	/* frame size = 0 */
 7872 0004 EC01      		movw r28,r24
 7873               	.LSM746:
 7874 0006 0E94 0000 		call f_sync
 7875               	.LVL828:
 7876               	.LSM747:
 7877 000a 8823      		tst r24
 7878               	.LVL829:
 7879 000c 01F4      		brne .L391
 7880 000e 1982      		std Y+1,__zero_reg__
 7881 0010 1882      		st Y,__zero_reg__
 7882               	.L391:
 7883               	.LVL830:
 7884               	/* epilogue start */
 7885               	.LSM748:
 7886 0012 DF91      		pop r29
 7887 0014 CF91      		pop r28
 7888               	.LVL831:
 7889 0016 0895      		ret
 7890               	.LFE161:
 7892               		.section	.text.f_open,"ax",@progbits
 7893               	.global	f_open
 7895               	f_open:
 7896               	.LFB157:
 7897               	.LSM749:
 7898               	.LVL832:
 7899 0000 5F92      		push r5
 7900 0002 6F92      		push r6
 7901 0004 7F92      		push r7
 7902 0006 8F92      		push r8
 7903 0008 9F92      		push r9
 7904 000a AF92      		push r10
 7905 000c BF92      		push r11
 7906 000e CF92      		push r12
 7907 0010 DF92      		push r13
 7908 0012 EF92      		push r14
 7909 0014 FF92      		push r15
 7910 0016 0F93      		push r16
 7911 0018 1F93      		push r17
 7912 001a DF93      		push r29
 7913 001c CF93      		push r28
 7914 001e CDB7      		in r28,__SP_L__
 7915 0020 DEB7      		in r29,__SP_H__
 7916 0022 A497      		sbiw r28,36
 7917 0024 0FB6      		in __tmp_reg__,__SREG__
 7918 0026 F894      		cli
 7919 0028 DEBF      		out __SP_H__,r29
 7920 002a 0FBE      		out __SREG__,__tmp_reg__
 7921 002c CDBF      		out __SP_L__,r28
 7922               	/* prologue: function */
 7923               	/* frame size = 36 */
 7924 002e 3C01      		movw r6,r24
 7925 0030 7CA3      		std Y+36,r23
 7926 0032 6BA3      		std Y+35,r22
 7927               	.LSM750:
 7928 0034 DC01      		movw r26,r24
 7929 0036 1D92      		st X+,__zero_reg__
 7930 0038 1C92      		st X,__zero_reg__
 7931               	.LSM751:
 7932 003a 5FE1      		ldi r21,lo8(31)
 7933 003c 552E      		mov r5,r21
 7934               	.LVL833:
 7935 003e 5422      		and r5,r20
 7936               	.LSM752:
 7937 0040 8E01      		movw r16,r28
 7938 0042 035F      		subi r16,lo8(-(13))
 7939 0044 1F4F      		sbci r17,hi8(-(13))
 7940 0046 4E71      		andi r20,lo8(30)
 7941               	.LVL834:
 7942 0048 CE01      		movw r24,r28
 7943               	.LVL835:
 7944 004a 8396      		adiw r24,35
 7945 004c B801      		movw r22,r16
 7946               	.LVL836:
 7947 004e 0E94 0000 		call chk_mounted
 7948               	.LVL837:
 7949 0052 282F      		mov r18,r24
 7950               	.LVL838:
 7951               	.LSM753:
 7952 0054 CE01      		movw r24,r28
 7953 0056 0196      		adiw r24,1
 7954 0058 9AA3      		std Y+34,r25
 7955 005a 89A3      		std Y+33,r24
 7956               	.LSM754:
 7957 005c 2223      		tst r18
 7958 005e 01F4      		brne .L394
 7959               	.LSM755:
 7960 0060 6BA1      		ldd r22,Y+35
 7961 0062 7CA1      		ldd r23,Y+36
 7962 0064 C801      		movw r24,r16
 7963 0066 0E94 0000 		call follow_path
 7964               	.LVL839:
 7965 006a 282F      		mov r18,r24
 7966               	.LVL840:
 7967               	.L394:
 7968               	.LSM756:
 7969 006c CF8C      		ldd r12,Y+31
 7970 006e D8A0      		ldd r13,Y+32
 7971               	.LVL841:
 7972               	.LSM757:
 7973 0070 2223      		tst r18
 7974 0072 01F4      		brne .L395
 7975               	.LSM758:
 7976 0074 C114      		cp r12,__zero_reg__
 7977 0076 D104      		cpc r13,__zero_reg__
 7978 0078 01F4      		brne .L395
 7979 007a 26E0      		ldi r18,lo8(6)
 7980               	.L395:
 7981               	.LSM759:
 7982 007c 452D      		mov r20,r5
 7983               	.LVL842:
 7984 007e 50E0      		ldi r21,lo8(0)
 7985 0080 CA01      		movw r24,r20
 7986 0082 8C71      		andi r24,lo8(28)
 7987 0084 9070      		andi r25,hi8(28)
 7988 0086 892B      		or r24,r25
 7989 0088 01F4      		brne .+2
 7990 008a 00C0      		rjmp .L396
 7991               	.LBB24:
 7992               	.LSM760:
 7993 008c 2223      		tst r18
 7994 008e 01F0      		breq .L397
 7995               	.LSM761:
 7996 0090 2430      		cpi r18,lo8(4)
 7997 0092 01F4      		brne .L398
 7998               	.LSM762:
 7999 0094 CE01      		movw r24,r28
 8000 0096 0D96      		adiw r24,13
 8001 0098 0E94 0000 		call dir_register
 8002               	.LVL843:
 8003 009c 282F      		mov r18,r24
 8004               	.LVL844:
 8005               	.L398:
 8006               	.LSM763:
 8007 009e CF8C      		ldd r12,Y+31
 8008 00a0 D8A0      		ldd r13,Y+32
 8009               	.LSM764:
 8010 00a2 2223      		tst r18
 8011 00a4 01F0      		breq .+2
 8012 00a6 00C0      		rjmp .L399
 8013               	.LSM765:
 8014 00a8 B8E0      		ldi r27,lo8(8)
 8015 00aa 5B2A      		or r5,r27
 8016 00ac 00C0      		rjmp .L400
 8017               	.L397:
 8018               	.LSM766:
 8019 00ae 52FE      		sbrs r5,2
 8020 00b0 00C0      		rjmp .L401
 8021               	.LVL845:
 8022 00b2 28E0      		ldi r18,lo8(8)
 8023 00b4 00C0      		rjmp .L399
 8024               	.L401:
 8025               	.LSM767:
 8026 00b6 F601      		movw r30,r12
 8027 00b8 8385      		ldd r24,Z+11
 8028 00ba 8171      		andi r24,lo8(17)
 8029 00bc 01F0      		breq .+2
 8030 00be 00C0      		rjmp .L405
 8031               	.LVL846:
 8032               	.L400:
 8033               	.LSM768:
 8034 00c0 53FE      		sbrs r5,3
 8035 00c2 00C0      		rjmp .L403
 8036               	.LSM769:
 8037 00c4 0E94 0000 		call get_fattime
 8038               	.LVL847:
 8039               	.LSM770:
 8040 00c8 D601      		movw r26,r12
 8041 00ca 1E96      		adiw r26,14
 8042 00cc 6D93      		st X+,r22
 8043 00ce 7D93      		st X+,r23
 8044 00d0 8D93      		st X+,r24
 8045 00d2 9C93      		st X,r25
 8046 00d4 5197      		sbiw r26,14+3
 8047               	.LVL848:
 8048               	.LSM771:
 8049 00d6 1B96      		adiw r26,11
 8050 00d8 1C92      		st X,__zero_reg__
 8051               	.LSM772:
 8052 00da F601      		movw r30,r12
 8053 00dc 148E      		std Z+28,__zero_reg__
 8054 00de 158E      		std Z+29,__zero_reg__
 8055 00e0 168E      		std Z+30,__zero_reg__
 8056 00e2 178E      		std Z+31,__zero_reg__
 8057               	.LSM773:
 8058 00e4 8489      		ldd r24,Z+20
 8059 00e6 9589      		ldd r25,Z+21
 8060 00e8 A0E0      		ldi r26,lo8(0)
 8061 00ea B0E0      		ldi r27,hi8(0)
 8062 00ec 8C01      		movw r16,r24
 8063 00ee FF24      		clr r15
 8064 00f0 EE24      		clr r14
 8065               	.LVL849:
 8066 00f2 828D      		ldd r24,Z+26
 8067 00f4 938D      		ldd r25,Z+27
 8068 00f6 A0E0      		ldi r26,lo8(0)
 8069 00f8 B0E0      		ldi r27,hi8(0)
 8070 00fa E82A      		or r14,r24
 8071 00fc F92A      		or r15,r25
 8072 00fe 0A2B      		or r16,r26
 8073 0100 1B2B      		or r17,r27
 8074               	.LSM774:
 8075 0102 158A      		std Z+21,__zero_reg__
 8076 0104 148A      		std Z+20,__zero_reg__
 8077               	.LSM775:
 8078 0106 138E      		std Z+27,__zero_reg__
 8079 0108 128E      		std Z+26,__zero_reg__
 8080               	.LSM776:
 8081 010a ED85      		ldd r30,Y+13
 8082 010c FE85      		ldd r31,Y+14
 8083 010e 81E0      		ldi r24,lo8(1)
 8084 0110 8483      		std Z+4,r24
 8085               	.LSM777:
 8086 0112 E114      		cp r14,__zero_reg__
 8087 0114 F104      		cpc r15,__zero_reg__
 8088 0116 0105      		cpc r16,__zero_reg__
 8089 0118 1105      		cpc r17,__zero_reg__
 8090 011a 01F0      		breq .L403
 8091               	.LSM778:
 8092 011c 82A4      		ldd r8,Z+42
 8093 011e 93A4      		ldd r9,Z+43
 8094 0120 A4A4      		ldd r10,Z+44
 8095 0122 B5A4      		ldd r11,Z+45
 8096               	.LVL850:
 8097               	.LSM779:
 8098 0124 CF01      		movw r24,r30
 8099 0126 B801      		movw r22,r16
 8100 0128 A701      		movw r20,r14
 8101 012a 0E94 0000 		call remove_chain
 8102 012e 282F      		mov r18,r24
 8103               	.LVL851:
 8104               	.LSM780:
 8105 0130 8823      		tst r24
 8106 0132 01F0      		breq .+2
 8107 0134 00C0      		rjmp .L399
 8108               	.LVL852:
 8109               	.LSM781:
 8110 0136 ED85      		ldd r30,Y+13
 8111 0138 FE85      		ldd r31,Y+14
 8112 013a 0894      		sec
 8113 013c E108      		sbc r14,__zero_reg__
 8114 013e F108      		sbc r15,__zero_reg__
 8115 0140 0109      		sbc r16,__zero_reg__
 8116 0142 1109      		sbc r17,__zero_reg__
 8117 0144 E286      		std Z+10,r14
 8118 0146 F386      		std Z+11,r15
 8119 0148 0487      		std Z+12,r16
 8120 014a 1587      		std Z+13,r17
 8121               	.LSM782:
 8122 014c CF01      		movw r24,r30
 8123               	.LVL853:
 8124 014e B501      		movw r22,r10
 8125 0150 A401      		movw r20,r8
 8126 0152 0E94 0000 		call move_window
 8127               	.LVL854:
 8128 0156 282F      		mov r18,r24
 8129               	.LVL855:
 8130               	.LBE24:
 8131               	.LSM783:
 8132 0158 8823      		tst r24
 8133 015a 01F0      		breq .L403
 8134               	.LVL856:
 8135 015c 00C0      		rjmp .L399
 8136               	.LVL857:
 8137               	.L396:
 8138               	.LSM784:
 8139 015e 2223      		tst r18
 8140 0160 01F0      		breq .+2
 8141 0162 00C0      		rjmp .L399
 8142               	.LSM785:
 8143 0164 D601      		movw r26,r12
 8144 0166 1B96      		adiw r26,11
 8145 0168 8C91      		ld r24,X
 8146 016a 84FF      		sbrs r24,4
 8147 016c 00C0      		rjmp .L404
 8148 016e 24E0      		ldi r18,lo8(4)
 8149 0170 00C0      		rjmp .L399
 8150               	.L404:
 8151               	.LSM786:
 8152 0172 51FE      		sbrs r5,1
 8153 0174 00C0      		rjmp .L403
 8154               	.LVL858:
 8155 0176 80FD      		sbrc r24,0
 8156 0178 00C0      		rjmp .L405
 8157               	.LVL859:
 8158               	.L403:
 8159               	.LSM787:
 8160 017a 852D      		mov r24,r5
 8161 017c 8E71      		andi r24,lo8(30)
 8162 017e 01F0      		breq .L406
 8163               	.LSM788:
 8164 0180 B0E2      		ldi r27,lo8(32)
 8165 0182 5B2A      		or r5,r27
 8166               	.L406:
 8167               	.LSM789:
 8168 0184 6D85      		ldd r22,Y+13
 8169 0186 7E85      		ldd r23,Y+14
 8170 0188 FB01      		movw r30,r22
 8171 018a 22A5      		ldd r18,Z+42
 8172 018c 33A5      		ldd r19,Z+43
 8173 018e 44A5      		ldd r20,Z+44
 8174 0190 55A5      		ldd r21,Z+45
 8175               	.LVL860:
 8176 0192 D301      		movw r26,r6
 8177 0194 5A96      		adiw r26,26
 8178 0196 2D93      		st X+,r18
 8179 0198 3D93      		st X+,r19
 8180 019a 4D93      		st X+,r20
 8181 019c 5C93      		st X,r21
 8182 019e 5D97      		sbiw r26,26+3
 8183               	.LSM790:
 8184 01a0 5F96      		adiw r26,30+1
 8185 01a2 DC92      		st X,r13
 8186 01a4 CE92      		st -X,r12
 8187 01a6 5E97      		sbiw r26,30
 8188               	.LSM791:
 8189 01a8 1496      		adiw r26,4
 8190 01aa 5C92      		st X,r5
 8191               	.LSM792:
 8192 01ac F601      		movw r30,r12
 8193 01ae 8489      		ldd r24,Z+20
 8194 01b0 9589      		ldd r25,Z+21
 8195 01b2 A0E0      		ldi r26,lo8(0)
 8196 01b4 B0E0      		ldi r27,hi8(0)
 8197 01b6 DC01      		movw r26,r24
 8198 01b8 9927      		clr r25
 8199 01ba 8827      		clr r24
 8200 01bc 228D      		ldd r18,Z+26
 8201 01be 338D      		ldd r19,Z+27
 8202 01c0 40E0      		ldi r20,lo8(0)
 8203 01c2 50E0      		ldi r21,hi8(0)
 8204 01c4 822B      		or r24,r18
 8205 01c6 932B      		or r25,r19
 8206 01c8 A42B      		or r26,r20
 8207 01ca B52B      		or r27,r21
 8208 01cc F301      		movw r30,r6
 8209 01ce 8687      		std Z+14,r24
 8210 01d0 9787      		std Z+15,r25
 8211 01d2 A08B      		std Z+16,r26
 8212 01d4 B18B      		std Z+17,r27
 8213               	.LSM793:
 8214 01d6 F601      		movw r30,r12
 8215 01d8 848D      		ldd r24,Z+28
 8216 01da 958D      		ldd r25,Z+29
 8217 01dc A68D      		ldd r26,Z+30
 8218 01de B78D      		ldd r27,Z+31
 8219 01e0 F301      		movw r30,r6
 8220 01e2 8287      		std Z+10,r24
 8221 01e4 9387      		std Z+11,r25
 8222 01e6 A487      		std Z+12,r26
 8223 01e8 B587      		std Z+13,r27
 8224               	.LSM794:
 8225 01ea D301      		movw r26,r6
 8226 01ec 1696      		adiw r26,6
 8227 01ee 1D92      		st X+,__zero_reg__
 8228 01f0 1D92      		st X+,__zero_reg__
 8229 01f2 1D92      		st X+,__zero_reg__
 8230 01f4 1C92      		st X,__zero_reg__
 8231 01f6 1997      		sbiw r26,6+3
 8232               	.LSM795:
 8233 01f8 168A      		std Z+22,__zero_reg__
 8234 01fa 178A      		std Z+23,__zero_reg__
 8235 01fc 108E      		std Z+24,__zero_reg__
 8236 01fe 118E      		std Z+25,__zero_reg__
 8237               	.LSM796:
 8238 0200 7183      		std Z+1,r23
 8239 0202 6083      		st Z,r22
 8240 0204 DB01      		movw r26,r22
 8241 0206 1696      		adiw r26,6
 8242 0208 8D91      		ld r24,X+
 8243 020a 9C91      		ld r25,X
 8244 020c 1797      		sbiw r26,6+1
 8245 020e 9383      		std Z+3,r25
 8246 0210 8283      		std Z+2,r24
 8247 0212 20E0      		ldi r18,lo8(0)
 8248               	.LVL861:
 8249               	.L399:
 8250               	.LSM797:
 8251 0214 822F      		mov r24,r18
 8252               	/* epilogue start */
 8253 0216 A496      		adiw r28,36
 8254 0218 0FB6      		in __tmp_reg__,__SREG__
 8255 021a F894      		cli
 8256 021c DEBF      		out __SP_H__,r29
 8257 021e 0FBE      		out __SREG__,__tmp_reg__
 8258 0220 CDBF      		out __SP_L__,r28
 8259 0222 CF91      		pop r28
 8260 0224 DF91      		pop r29
 8261 0226 1F91      		pop r17
 8262 0228 0F91      		pop r16
 8263 022a FF90      		pop r15
 8264 022c EF90      		pop r14
 8265               	.LVL862:
 8266 022e DF90      		pop r13
 8267 0230 CF90      		pop r12
 8268               	.LVL863:
 8269 0232 BF90      		pop r11
 8270 0234 AF90      		pop r10
 8271 0236 9F90      		pop r9
 8272 0238 8F90      		pop r8
 8273               	.LVL864:
 8274 023a 7F90      		pop r7
 8275 023c 6F90      		pop r6
 8276               	.LVL865:
 8277 023e 5F90      		pop r5
 8278               	.LVL866:
 8279 0240 0895      		ret
 8280               	.LVL867:
 8281               	.L405:
 8282               	.LSM798:
 8283 0242 27E0      		ldi r18,lo8(7)
 8284 0244 00C0      		rjmp .L399
 8285               	.LFE157:
 8287               		.lcomm Fsid,2
 8288               		.lcomm FatFs,2
 8289               		.comm Din,2,1
 8290               		.comm n,2,1
 8291               		.comm Checksum,1,1
 8292               		.comm U1input,2,1
 8597               	.Letext0:
DEFINED SYMBOLS
                            *ABS*:00000000 ff.c
C:\Users\kriedel\AppData\Local\Temp/ccZtx4ii.s:2      *ABS*:0000003f __SREG__
C:\Users\kriedel\AppData\Local\Temp/ccZtx4ii.s:3      *ABS*:0000003e __SP_H__
C:\Users\kriedel\AppData\Local\Temp/ccZtx4ii.s:4      *ABS*:0000003d __SP_L__
C:\Users\kriedel\AppData\Local\Temp/ccZtx4ii.s:5      *ABS*:00000034 __CCP__
C:\Users\kriedel\AppData\Local\Temp/ccZtx4ii.s:6      *ABS*:00000000 __tmp_reg__
C:\Users\kriedel\AppData\Local\Temp/ccZtx4ii.s:7      *ABS*:00000001 __zero_reg__
C:\Users\kriedel\AppData\Local\Temp/ccZtx4ii.s:18     .text.mem_cpy:00000000 mem_cpy
C:\Users\kriedel\AppData\Local\Temp/ccZtx4ii.s:99     .text.mem_set:00000000 mem_set
C:\Users\kriedel\AppData\Local\Temp/ccZtx4ii.s:131    .text.clust2sect:00000000 clust2sect
C:\Users\kriedel\AppData\Local\Temp/ccZtx4ii.s:212    .text.get_fileinfo:00000000 get_fileinfo
C:\Users\kriedel\AppData\Local\Temp/ccZtx4ii.s:358    .text.f_mount:00000000 f_mount
C:\Users\kriedel\AppData\Local\Temp/ccZtx4ii.s:8287   .bss:00000002 FatFs
C:\Users\kriedel\AppData\Local\Temp/ccZtx4ii.s:401    .text.validate:00000000 validate
C:\Users\kriedel\AppData\Local\Temp/ccZtx4ii.s:440    .text.check_fs:00000000 check_fs
C:\Users\kriedel\AppData\Local\Temp/ccZtx4ii.s:524    .text.chk_mounted:00000000 chk_mounted
                             .bss:00000000 Fsid
C:\Users\kriedel\AppData\Local\Temp/ccZtx4ii.s:1372   .text.move_window:00000000 move_window
C:\Users\kriedel\AppData\Local\Temp/ccZtx4ii.s:1535   .text.put_fat:00000000 put_fat
C:\Users\kriedel\AppData\Local\Temp/ccZtx4ii.s:1861   .text.get_fat:00000000 get_fat
C:\Users\kriedel\AppData\Local\Temp/ccZtx4ii.s:2123   .text.dir_sdi:00000000 dir_sdi
C:\Users\kriedel\AppData\Local\Temp/ccZtx4ii.s:2371   .text.create_chain:00000000 create_chain
C:\Users\kriedel\AppData\Local\Temp/ccZtx4ii.s:2673   .text.remove_chain:00000000 remove_chain
C:\Users\kriedel\AppData\Local\Temp/ccZtx4ii.s:2844   .text.f_truncate:00000000 f_truncate
C:\Users\kriedel\AppData\Local\Temp/ccZtx4ii.s:3036   .text.f_lseek:00000000 f_lseek
C:\Users\kriedel\AppData\Local\Temp/ccZtx4ii.s:3597   .text.dir_remove:00000000 dir_remove
C:\Users\kriedel\AppData\Local\Temp/ccZtx4ii.s:3657   .text.dir_next:00000000 dir_next
C:\Users\kriedel\AppData\Local\Temp/ccZtx4ii.s:4000   .text.follow_path:00000000 follow_path
C:\Users\kriedel\AppData\Local\Temp/ccZtx4ii.s:4484   .text.f_stat:00000000 f_stat
C:\Users\kriedel\AppData\Local\Temp/ccZtx4ii.s:4582   .text.f_opendir:00000000 f_opendir
C:\Users\kriedel\AppData\Local\Temp/ccZtx4ii.s:4719   .text.dir_register:00000000 dir_register
C:\Users\kriedel\AppData\Local\Temp/ccZtx4ii.s:4836   .text.dir_read:00000000 dir_read
C:\Users\kriedel\AppData\Local\Temp/ccZtx4ii.s:4935   .text.f_readdir:00000000 f_readdir
C:\Users\kriedel\AppData\Local\Temp/ccZtx4ii.s:5054   .text.f_getfree:00000000 f_getfree
C:\Users\kriedel\AppData\Local\Temp/ccZtx4ii.s:5398   .text.f_read:00000000 f_read
C:\Users\kriedel\AppData\Local\Temp/ccZtx4ii.s:5850   .text.f_write:00000000 f_write
C:\Users\kriedel\AppData\Local\Temp/ccZtx4ii.s:6418   .text.sync:00000000 sync
C:\Users\kriedel\AppData\Local\Temp/ccZtx4ii.s:6559   .text.f_rename:00000000 f_rename
C:\Users\kriedel\AppData\Local\Temp/ccZtx4ii.s:6873   .text.f_utime:00000000 f_utime
C:\Users\kriedel\AppData\Local\Temp/ccZtx4ii.s:6987   .text.f_chmod:00000000 f_chmod
C:\Users\kriedel\AppData\Local\Temp/ccZtx4ii.s:7099   .text.f_unlink:00000000 f_unlink
C:\Users\kriedel\AppData\Local\Temp/ccZtx4ii.s:7334   .text.f_mkdir:00000000 f_mkdir
C:\Users\kriedel\AppData\Local\Temp/ccZtx4ii.s:7744   .text.f_sync:00000000 f_sync
C:\Users\kriedel\AppData\Local\Temp/ccZtx4ii.s:7864   .text.f_close:00000000 f_close
C:\Users\kriedel\AppData\Local\Temp/ccZtx4ii.s:7895   .text.f_open:00000000 f_open
                            *COM*:00000002 Din
                            *COM*:00000002 n
                            *COM*:00000001 Checksum
                            *COM*:00000002 U1input

UNDEFINED SYMBOLS
__mulsi3
disk_status
disk_read
disk_initialize
__udivmodsi4
disk_write
disk_ioctl
get_fattime
__do_copy_data
__do_clear_bss
